(dp0
(I0
I42
I1
tp1
I18
s(I0
I24
I1
tp2
I151
s(I0
I45
I1
tp3
I21
s(I0
I27
I1
tp4
I148
s(I0
I49
I0
tp5
I61
s(I0
I44
I0
tp6
I43
s(I0
I53
I1
tp7
I5
s(I0
I42
I3
tp8
I82
s(I0
I59
I2
tp9
I100
s(I0
I45
I3
tp10
I85
s(I0
I62
I0
tp11
I34
s(I0
I49
I2
tp12
I125
s(I0
I2
I1
tp13
I170
s(I0
I56
I2
tp14
I103
s(I0
I5
I1
tp15
I173
s(I0
I59
I0
tp16
I36
s(I0
I12
I3
tp17
I223
s(I0
I54
I2
tp18
I121
s(I0
I15
I3
tp19
I220
s(I0
I2
I3
tp20
I193
s(I0
I48
I1
tp21
I3
s(I0
I19
I2
tp22
I243
s(I0
I5
I3
tp23
I197
s(I0
I22
I0
tp24
I130
s(I0
I12
I1
tp25
I180
s(I0
I15
I1
tp26
I183
s(I0
I16
I2
tp27
I240
s(I0
I37
I0
tp28
I50
s(I0
I19
I0
tp29
I132
s(I0
I53
I2
tp30
I122
s(I0
I22
I2
tp31
I246
s(I0
I47
I2
tp32
I104
s(I0
I34
I0
tp33
I53
s(I0
I16
I0
tp34
I135
s(I0
I37
I2
tp35
I114
s(I0
I54
I1
tp36
I6
s(I0
I9
I1
tp37
I177
s(I0
I47
I0
tp38
I40
s(I0
I29
I0
tp39
I154
s(I0
I34
I2
tp40
I117
sS'nrows'
p41
I64
s(I0
I51
I3
tp42
I64
s(I0
I48
I0
tp43
I60
s(I0
I54
I3
tp44
I70
s(I0
I7
I2
tp45
I208
s(I0
I9
I3
tp46
I217
s(I0
I26
I0
tp47
I158
sS'chip2conn'
p48
(dp49
I0
I0
sI1
I1
sI2
I2
sI3
I3
sI4
I4
sI5
I5
sI6
I6
sI7
I7
ss(I0
I29
I2
tp50
I237
s(I0
I51
I1
tp51
I0
s(I0
I4
I2
tp52
I211
s(I0
I41
I0
tp53
I46
s(I0
I53
I3
tp54
I69
s(I0
I7
I0
tp55
I184
s(I0
I26
I2
tp56
I234
s(I0
I36
I1
tp57
I12
s(I0
I4
I0
tp58
I187
s(I0
I41
I2
tp59
I110
s(I0
I58
I1
tp60
I26
s(I0
I61
I1
tp61
I30
s(I0
I1
I0
tp62
I189
s(I0
I39
I3
tp63
I79
s(I0
I58
I3
tp64
I90
s(I0
I60
I1
tp65
I31
s(I0
I11
I2
tp66
I204
s(I0
I61
I3
tp67
I94
s(I0
I14
I0
tp68
I162
s(I0
I1
I2
tp69
I214
s(I0
I18
I1
tp70
I141
s(I0
I39
I1
tp71
I15
s(I0
I8
I2
tp72
I207
s(I0
I11
I0
tp73
I164
s(I0
I28
I3
tp74
I228
s(I0
I14
I2
tp75
I201
s(I0
I31
I3
tp76
I231
s(I0
I18
I3
tp77
I250
s(I0
I8
I0
tp78
I167
s(I0
I46
I1
tp79
I22
s(I0
I28
I1
tp80
I147
s(I0
I33
I1
tp81
I9
s(I0
I38
I0
tp82
I49
s(I0
I31
I1
tp83
I144
s(I0
I40
I3
tp84
I80
s(I0
I43
I3
tp85
I83
s(I0
I60
I0
tp86
I32
s(I0
I46
I3
tp87
I86
s(I0
I63
I2
tp88
I99
s(I0
I33
I3
tp89
I73
s(I0
I50
I0
tp90
I62
s(I0
I40
I1
tp91
I16
s(I0
I6
I1
tp92
I174
s(I0
I43
I1
tp93
I19
s(I0
I25
I1
tp94
I150
s(I0
I63
I0
tp95
I35
s(I0
I0
I3
tp96
I195
s(I0
I50
I2
tp97
I126
s(I0
I3
I3
tp98
I192
s(I0
I6
I3
tp99
I198
s(I0
I23
I2
tp100
I247
s(I0
I25
I3
tp101
I226
s(I0
I0
I1
tp102
I168
s(I0
I3
I1
tp103
I171
s(I0
I20
I2
tp104
I244
s(I0
I57
I0
tp105
I38
s(I0
I62
I2
tp106
I98
s(I0
I23
I0
tp107
I131
s(I0
I48
I2
tp108
I124
s(I0
I58
I0
tp109
I37
s(I0
I56
I1
tp110
I24
s(I0
I35
I2
tp111
I116
s(I0
I60
I3
tp112
I95
s(I0
I44
I1
tp113
I20
s(I0
I36
I3
tp114
I76
s(I0
I20
I0
tp115
I128
s(I0
I57
I2
tp116
I102
s(I0
I10
I1
tp117
I178
s(I0
I13
I1
tp118
I181
s(I0
I35
I0
tp119
I52
s(I0
I17
I0
tp120
I134
s(I0
I38
I2
tp121
I113
s(I0
I55
I3
tp122
I71
s(I0
I10
I3
tp123
I218
s(I0
I27
I2
tp124
I235
s(I0
I13
I3
tp125
I222
s(I0
I30
I0
tp126
I153
s(I0
I17
I2
tp127
I241
s(I0
I55
I1
tp128
I7
s(I0
I24
I2
tp129
I232
s(I0
I45
I0
tp130
I42
s(I0
I52
I2
tp131
I123
s(I0
I27
I0
tp132
I159
s(I0
I30
I2
tp133
I238
s(I0
I36
I2
tp134
I115
s(I0
I42
I0
tp135
I45
s(I0
I24
I0
tp136
I156
s(I0
I45
I2
tp137
I106
s(I0
I62
I1
tp138
I29
s(I0
I49
I1
tp139
I2
s(I0
I5
I0
tp140
I186
s(I0
I42
I2
tp141
I109
s(I0
I59
I3
tp142
I91
s(I0
I62
I3
tp143
I93
s(I0
I46
I2
tp144
I105
s(I0
I15
I2
tp145
I200
s(I0
I49
I3
tp146
I66
s(I0
I2
I0
tp147
I190
s(I0
I5
I2
tp148
I210
s(I0
I21
I0
tp149
I129
s(I0
I22
I1
tp150
I137
s(I0
I59
I1
tp151
I27
s(I0
I12
I2
tp152
I203
s(I0
I15
I0
tp153
I163
s(I0
I16
I3
tp154
I248
s(I0
I2
I2
tp155
I213
s(I0
I19
I3
tp156
I251
s(I0
I22
I3
tp157
I253
s(I0
I32
I3
tp158
I72
s(I0
I12
I0
tp159
I160
s(I0
I34
I1
tp160
I10
s(I0
I16
I1
tp161
I143
s(I0
I37
I1
tp162
I13
s(I0
I19
I1
tp163
I140
s(I0
I9
I0
tp164
I166
s(I0
I47
I3
tp165
I87
s(I0
I34
I3
tp166
I74
s(I0
I51
I2
tp167
I127
s(I0
I37
I3
tp168
I77
s(I0
I54
I0
tp169
I57
s(I0
I21
I1
tp170
I138
s(I0
I9
I2
tp171
I206
s(I0
I56
I0
tp172
I39
s(I0
I26
I1
tp173
I149
s(I0
I47
I1
tp174
I23
s(I0
I29
I1
tp175
I146
s(I0
I51
I0
tp176
I63
s(I0
I4
I3
tp177
I196
s(I0
I36
I0
tp178
I51
s(I0
I7
I3
tp179
I199
s(I0
I32
I2
tp180
I119
s(I0
I26
I3
tp181
I225
s(I0
I29
I3
tp182
I229
s(I0
I4
I1
tp183
I172
s(I0
I41
I1
tp184
I17
s(I0
I7
I1
tp185
I175
s(I0
I60
I2
tp186
I96
s(I0
I61
I0
tp187
I33
s(I0
I39
I2
tp188
I112
s(I0
I41
I3
tp189
I81
s(I0
I21
I2
tp190
I245
s(I0
I61
I2
tp191
I97
s(I0
I52
I3
tp192
I68
s(I0
I14
I1
tp193
I182
s(I0
I1
I1
tp194
I169
s(I0
I56
I3
tp195
I88
s(I0
I39
I0
tp196
I48
s(I0
I8
I3
tp197
I216
s(I0
I58
I2
tp198
I101
s(I0
I11
I3
tp199
I219
s(I0
I14
I3
tp200
I221
s(I0
I44
I3
tp201
I84
s(I0
I31
I2
tp202
I239
s(I0
I1
I3
tp203
I194
s(I0
I18
I0
tp204
I133
s(I0
I8
I1
tp205
I176
s(I0
I11
I1
tp206
I179
s(I0
I28
I2
tp207
I236
s(I0
I33
I0
tp208
I54
s(I0
I31
I0
tp209
I152
s(I0
I18
I2
tp210
I242
s(I0
I43
I2
tp211
I108
s(I0
I21
I3
tp212
I254
s(I0
I46
I0
tp213
I41
s(I0
I28
I0
tp214
I155
s(I0
I33
I2
tp215
I118
s(I0
I50
I1
tp216
I1
s(I0
I40
I2
tp217
I111
s(I0
I43
I0
tp218
I44
s(I0
I25
I0
tp219
I157
s(I0
I32
I0
tp220
I55
s(I0
I63
I3
tp221
I92
s(I0
I44
I2
tp222
I107
s(I0
I50
I3
tp223
I65
s(I0
I3
I2
tp224
I212
s(I0
I40
I0
tp225
I47
s(I0
I6
I0
tp226
I185
s(I0
I25
I2
tp227
I233
s(I0
I63
I1
tp228
I28
s(I0
I0
I2
tp229
I215
sS'ncols'
p230
I4
s(I0
I3
I0
tp231
I191
s(I0
I20
I3
tp232
I255
s(I0
I6
I2
tp233
I209
s(I0
I23
I3
tp234
I252
sS'nshanks'
p235
I1
s(I0
I52
I1
tp236
I4
s(I0
I0
I0
tp237
I188
s(I0
I48
I3
tp238
I67
s(I0
I38
I1
tp239
I14
s(I0
I20
I1
tp240
I139
s(I0
I57
I1
tp241
I25
s(I0
I23
I1
tp242
I136
s(I0
I13
I0
tp243
I161
s(I0
I35
I3
tp244
I75
s(I0
I38
I3
tp245
I78
s(I0
I53
I0
tp246
I58
s(I0
I55
I2
tp247
I120
s(I0
I57
I3
tp248
I89
s(I0
I10
I0
tp249
I165
s(I0
I13
I2
tp250
I202
s(I0
I30
I1
tp251
I145
s(I0
I35
I1
tp252
I11
s(I0
I17
I1
tp253
I142
s(I0
I55
I0
tp254
I56
s(I0
I24
I3
tp255
I227
s(I0
I10
I2
tp256
I205
s(I0
I27
I3
tp257
I224
s(I0
I52
I0
tp258
I59
s(I0
I30
I3
tp259
I230
s(I0
I32
I1
tp260
I8
s(I0
I17
I3
tp261
I249
s.