(dp0
(I0
I42
I1
tp1
I109
s(I0
I24
I1
tp2
I88
s(I0
I45
I1
tp3
I106
s(I0
I27
I1
tp4
I91
s(I0
I49
I0
tp5
I2
s(I0
I62
I0
tp6
I29
s(I0
I2
I1
tp7
I85
s(I0
I5
I1
tp8
I82
s(I0
I59
I0
tp9
I27
s(I0
I56
I0
tp10
I24
s(I0
I22
I0
tp11
I38
s(I0
I12
I1
tp12
I75
s(I0
I15
I1
tp13
I72
s(I0
I37
I0
tp14
I18
s(I0
I19
I0
tp15
I32
s(I0
I34
I0
tp16
I21
s(I0
I16
I0
tp17
I35
s(I0
I54
I1
tp18
I102
s(I0
I9
I1
tp19
I78
s(I0
I47
I0
tp20
I8
s(I0
I29
I0
tp21
I62
sS'nrows'
p22
I64
s(I0
I44
I0
tp23
I11
s(I0
I26
I0
tp24
I58
s(I0
I48
I1
tp25
I99
s(I0
I51
I1
tp26
I96
s(I0
I41
I0
tp27
I14
s(I0
I7
I0
tp28
I48
s(I0
I4
I0
tp29
I51
s(I0
I58
I1
tp30
I122
s(I0
I61
I1
tp31
I126
s(I0
I1
I0
tp32
I54
s(I0
I14
I0
tp33
I41
s(I0
I36
I1
tp34
I115
s(I0
I18
I1
tp35
I65
s(I0
I39
I1
tp36
I112
s(I0
I21
I1
tp37
I69
s(I0
I11
I0
tp38
I44
s(I0
I8
I0
tp39
I47
s(I0
I46
I1
tp40
I105
s(I0
I28
I1
tp41
I95
s(I0
I33
I1
tp42
I118
s(I0
I31
I1
tp43
I92
s(I0
I53
I0
tp44
I5
s(I0
I50
I0
tp45
I1
s(I0
I40
I1
tp46
I111
s(I0
I6
I1
tp47
I81
s(I0
I43
I1
tp48
I108
s(I0
I25
I1
tp49
I89
s(I0
I63
I0
tp50
I28
s(I0
I60
I0
tp51
I31
s(I0
I0
I1
tp52
I87
s(I0
I3
I1
tp53
I84
s(I0
I57
I0
tp54
I25
s(I0
I23
I0
tp55
I39
s(I0
I38
I0
tp56
I17
s(I0
I20
I0
tp57
I36
s(I0
I10
I1
tp58
I77
s(I0
I13
I1
tp59
I74
s(I0
I35
I0
tp60
I20
s(I0
I17
I0
tp61
I34
s(I0
I32
I0
tp62
I23
s(I0
I30
I0
tp63
I61
s(I0
I52
I1
tp64
I100
s(I0
I55
I1
tp65
I103
s(I0
I45
I0
tp66
I10
s(I0
I27
I0
tp67
I59
s(I0
I42
I0
tp68
I13
s(I0
I24
I0
tp69
I56
s(I0
I62
I1
tp70
I125
s(I0
I49
I1
tp71
I98
s(I0
I5
I0
tp72
I50
s(I0
I2
I0
tp73
I53
s(I0
I56
I1
tp74
I120
s(I0
I22
I1
tp75
I70
s(I0
I59
I1
tp76
I123
s(I0
I15
I0
tp77
I40
s(I0
I12
I0
tp78
I43
s(I0
I34
I1
tp79
I117
s(I0
I16
I1
tp80
I67
s(I0
I37
I1
tp81
I114
s(I0
I19
I1
tp82
I64
s(I0
I9
I0
tp83
I46
sS'chip2conn'
p84
(dp85
I0
I0
sI1
I1
sI2
I2
sI3
I3
ss(I0
I54
I0
tp86
I6
s(I0
I44
I1
tp87
I107
s(I0
I26
I1
tp88
I90
s(I0
I47
I1
tp89
I104
s(I0
I29
I1
tp90
I94
s(I0
I51
I0
tp91
I0
s(I0
I48
I0
tp92
I3
s(I0
I4
I1
tp93
I83
s(I0
I41
I1
tp94
I110
s(I0
I7
I1
tp95
I80
s(I0
I61
I0
tp96
I30
s(I0
I58
I0
tp97
I26
s(I0
I14
I1
tp98
I73
s(I0
I1
I1
tp99
I86
s(I0
I39
I0
tp100
I16
s(I0
I21
I0
tp101
I37
s(I0
I36
I0
tp102
I19
s(I0
I18
I0
tp103
I33
s(I0
I8
I1
tp104
I79
s(I0
I11
I1
tp105
I76
s(I0
I33
I0
tp106
I22
s(I0
I31
I0
tp107
I60
s(I0
I46
I0
tp108
I9
s(I0
I28
I0
tp109
I63
s(I0
I50
I1
tp110
I97
s(I0
I53
I1
tp111
I101
s(I0
I43
I0
tp112
I12
s(I0
I25
I0
tp113
I57
s(I0
I40
I0
tp114
I15
s(I0
I6
I0
tp115
I49
s(I0
I60
I1
tp116
I127
s(I0
I63
I1
tp117
I124
sS'ncols'
p118
I2
s(I0
I3
I0
tp119
I52
sS'nshanks'
p120
I1
s(I0
I0
I0
tp121
I55
s(I0
I38
I1
tp122
I113
s(I0
I20
I1
tp123
I68
s(I0
I57
I1
tp124
I121
s(I0
I23
I1
tp125
I71
s(I0
I13
I0
tp126
I42
s(I0
I10
I0
tp127
I45
s(I0
I32
I1
tp128
I119
s(I0
I30
I1
tp129
I93
s(I0
I35
I1
tp130
I116
s(I0
I17
I1
tp131
I66
s(I0
I55
I0
tp132
I7
s(I0
I52
I0
tp133
I4
s.