(dp0
(I3
I66
I0
tp1
I945
s(I2
I86
I0
tp2
I208
s(I1
I77
I0
tp3
I423
s(I1
I53
I1
tp4
I99
s(I0
I27
I1
tp5
I60
s(I0
I67
I0
tp6
I284
s(I2
I33
I1
tp7
I793
s(I1
I86
I1
tp8
I255
s(I1
I30
I0
tp9
I478
s(I4
I95
I1
tp10
I1018
s(I3
I32
I0
tp11
I549
s(I1
I47
I0
tp12
I457
s(I0
I2
I1
tp13
I27
s(I2
I40
I1
tp14
I782
s(I1
I48
I1
tp15
I96
s(I1
I95
I1
tp16
I253
s(I4
I30
I0
tp17
I638
s(I4
I86
I1
tp18
I1009
s(I3
I97
I1
tp19
I965
s(I2
I51
I0
tp20
I377
s(I4
I77
I0
tp21
I837
s(I0
I56
I0
tp22
I270
s(I0
I96
I1
tp23
I314
s(I2
I66
I0
tp24
I507
s(I1
I57
I1
tp25
I73
s(I0
I15
I1
tp26
I15
s(I3
I7
I0
tp27
I566
s(I2
I45
I1
tp28
I784
s(I1
I90
I1
tp29
I105
s(I1
I2
I0
tp30
I342
s(I4
I12
I1
tp31
I721
s(I3
I52
I0
tp32
I957
s(I0
I54
I1
tp33
I190
s(I2
I84
I1
tp34
I230
s(I1
I36
I1
tp35
I119
s(I1
I67
I1
tp36
I78
s(I4
I42
I0
tp37
I741
s(I0
I29
I0
tp38
I405
s(I2
I63
I0
tp39
I505
s(I1
I84
I0
tp40
I310
s(I4
I1
I1
tp41
I710
s(I4
I89
I0
tp42
I844
s(I0
I44
I0
tp43
I389
s(I2
I78
I0
tp44
I492
s(I1
I101
I0
tp45
I318
s(I1
I45
I1
tp46
I120
s(I0
I51
I1
tp47
I48
s(I3
I27
I0
tp48
I569
s(I2
I89
I1
tp49
I666
s(I1
I78
I1
tp50
I216
s(I1
I54
I0
tp51
I441
s(I4
I24
I1
tp52
I992
s(I0
I58
I1
tp53
I188
s(I2
I24
I0
tp54
I224
s(I2
I64
I1
tp55
I904
s(I1
I40
I1
tp56
I124
s(I4
I38
I0
tp57
I628
s(I0
I1
I0
tp58
I25
s(I3
I9
I1
tp59
I700
s(I2
I43
I0
tp60
I353
s(I1
I88
I0
tp61
I301
s(I4
I29
I1
tp62
I881
s(I4
I85
I0
tp63
I858
s(I0
I80
I0
tp64
I256
s(I0
I39
I1
tp65
I37
s(I3
I47
I0
tp66
I928
s(I2
I69
I1
tp67
I899
s(I1
I58
I0
tp68
I443
s(I4
I20
I1
tp69
I994
s(I3
I4
I1
tp70
I699
s(I4
I3
I0
tp71
I730
s(I0
I46
I1
tp72
I54
s(I2
I4
I0
tp73
I501
s(I2
I76
I1
tp74
I913
s(I4
I50
I0
tp75
I738
s(I0
I53
I0
tp76
I275
s(I3
I69
I0
tp77
I950
s(I3
I29
I1
tp78
I826
s(I2
I87
I0
tp79
I214
s(I1
I76
I0
tp80
I420
s(I4
I41
I1
tp81
I895
s(I4
I97
I0
tp82
I850
s(I0
I68
I0
tp83
I281
s(I3
I90
I0
tp84
I523
s(I1
I29
I0
tp85
I479
s(I0
I43
I1
tp86
I35
s(I3
I35
I0
tp87
I811
s(I2
I22
I1
tp88
I774
s(I1
I46
I0
tp89
I461
s(I4
I32
I1
tp90
I872
s(I3
I24
I1
tp91
I695
s(I4
I31
I0
tp92
I579
s(I0
I82
I1
tp93
I180
s(I2
I48
I0
tp94
I358
s(I4
I78
I0
tp95
I856
s(I0
I57
I0
tp96
I273
s(I3
I89
I0
tp97
I537
s(I3
I17
I1
tp98
I686
s(I2
I27
I1
tp99
I769
s(I2
I67
I0
tp100
I487
s(I4
I37
I1
tp101
I876
s(I0
I72
I0
tp102
I283
s(I3
I6
I0
tp103
I560
s(I3
I88
I0
tp104
I540
s(I1
I1
I0
tp105
I341
s(I0
I95
I1
tp106
I291
s(I3
I55
I0
tp107
I939
s(I2
I2
I1
tp108
I649
s(I4
I60
I1
tp109
I751
s(I3
I44
I1
tp110
I820
s(I3
I71
I1
tp111
I582
s(I4
I43
I0
tp112
I761
s(I0
I30
I0
tp113
I403
s(I0
I70
I1
tp114
I164
s(I2
I60
I0
tp115
I362
s(I2
I100
I1
tp116
I527
s(I1
I19
I1
tp117
I202
s(I4
I90
I0
tp118
I845
s(I0
I45
I0
tp119
I390
s(I3
I37
I1
tp120
I801
s(I2
I7
I1
tp121
I655
s(I2
I79
I0
tp122
I490
s(I1
I100
I0
tp123
I297
s(I4
I49
I1
tp124
I869
s(I3
I66
I1
tp125
I577
s(I3
I26
I0
tp126
I574
s(I3
I86
I0
tp127
I541
s(I1
I53
I0
tp128
I445
s(I0
I67
I1
tp129
I185
s(I2
I14
I1
tp130
I662
s(I1
I30
I1
tp131
I90
s(I4
I72
I1
tp132
I763
s(I3
I32
I1
tp133
I831
s(I3
I91
I1
tp134
I986
s(I2
I25
I0
tp135
I247
s(I4
I39
I0
tp136
I629
s(I0
I2
I0
tp137
I11
s(I0
I74
I1
tp138
I169
s(I4
I11
I1
tp139
I718
s(I2
I40
I0
tp140
I238
s(I1
I95
I0
tp141
I300
s(I1
I7
I1
tp142
I327
s(I4
I86
I0
tp143
I861
s(I0
I81
I0
tp144
I156
s(I3
I97
I0
tp145
I530
s(I3
I57
I1
tp146
I983
s(I2
I51
I1
tp147
I923
s(I4
I77
I1
tp148
I1005
s(I0
I96
I0
tp149
I138
s(I3
I46
I0
tp150
I808
s(I1
I57
I0
tp151
I447
s(I0
I16
I1
tp152
I12
s(I2
I58
I1
tp153
I920
s(I1
I2
I1
tp154
I345
s(I4
I12
I0
tp155
I592
s(I4
I68
I1
tp156
I758
s(I3
I52
I1
tp157
I979
s(I2
I5
I0
tp158
I496
sS'chip2conn'
p159
(dp160
I0
I0
sI1
I1
sI2
I2
sI3
I3
sI4
I8
sI5
I9
sI6
I10
sI7
I11
sI8
I16
sI9
I17
sI10
I18
sI11
I19
sI12
I24
sI13
I25
sI14
I26
sI15
I27
sI16
I4
sI17
I5
sI18
I6
sI19
I7
sI20
I12
sI21
I13
sI22
I14
sI23
I15
sI24
I20
sI25
I21
sI26
I22
sI27
I23
sI28
I28
sI29
I29
sI30
I30
sI31
I31
ss(I4
I51
I0
tp161
I616
s(I0
I54
I0
tp162
I269
s(I3
I68
I0
tp163
I946
s(I2
I84
I0
tp164
I495
s(I1
I67
I0
tp165
I432
s(I1
I11
I1
tp166
I325
s(I0
I29
I1
tp167
I61
s(I0
I69
I0
tp168
I285
s(I2
I63
I1
tp169
I896
s(I1
I84
I1
tp170
I251
s(I1
I28
I0
tp171
I474
s(I4
I89
I1
tp172
I1020
s(I3
I34
I0
tp173
I812
s(I1
I45
I0
tp174
I458
s(I0
I4
I1
tp175
I31
s(I2
I38
I1
tp176
I781
s(I1
I54
I1
tp177
I102
s(I1
I93
I1
tp178
I252
s(I4
I24
I0
tp179
I587
s(I4
I80
I1
tp180
I1003
s(I3
I99
I1
tp181
I964
s(I2
I49
I0
tp182
I378
s(I4
I79
I0
tp183
I836
s(I0
I58
I0
tp184
I271
s(I0
I98
I1
tp185
I315
s(I2
I64
I0
tp186
I506
s(I1
I63
I1
tp187
I80
s(I0
I1
I1
tp188
I29
s(I0
I73
I0
tp189
I287
s(I3
I9
I0
tp190
I565
s(I2
I43
I1
tp191
I785
s(I1
I88
I1
tp192
I254
s(I1
I0
I0
tp193
I349
s(I4
I85
I1
tp194
I1011
s(I4
I14
I1
tp195
I722
s(I3
I54
I0
tp196
I956
s(I0
I8
I1
tp197
I18
s(I2
I82
I1
tp198
I229
s(I1
I58
I1
tp199
I76
s(I1
I65
I1
tp200
I79
s(I4
I20
I0
tp201
I585
s(I0
I31
I0
tp202
I404
s(I2
I61
I0
tp203
I510
s(I4
I3
I1
tp204
I732
s(I4
I91
I0
tp205
I843
s(I0
I46
I0
tp206
I276
s(I2
I76
I0
tp207
I485
s(I1
I35
I1
tp208
I117
s(I0
I53
I1
tp209
I47
s(I3
I29
I0
tp210
I568
s(I2
I87
I1
tp211
I667
s(I1
I76
I1
tp212
I199
s(I1
I52
I0
tp213
I440
s(I4
I97
I1
tp214
I1017
s(I4
I26
I1
tp215
I877
s(I0
I60
I1
tp216
I40
s(I2
I22
I0
tp217
I225
s(I2
I94
I1
tp218
I534
s(I1
I46
I1
tp219
I126
s(I4
I32
I0
tp220
I637
s(I0
I3
I0
tp221
I10
s(I3
I11
I1
tp222
I701
s(I2
I41
I0
tp223
I232
s(I1
I94
I0
tp224
I317
s(I4
I31
I1
tp225
I880
s(I3
I78
I1
tp226
I974
s(I0
I82
I0
tp227
I153
s(I3
I96
I0
tp228
I526
s(I4
I98
I1
tp229
I997
s(I0
I57
I1
tp230
I42
s(I0
I97
I0
tp231
I143
s(I3
I17
I0
tp232
I557
s(I2
I67
I1
tp233
I898
s(I1
I56
I0
tp234
I442
sS'nrows'
p235
I102
s(I4
I22
I1
tp236
I993
s(I3
I6
I1
tp237
I703
s(I4
I13
I0
tp238
I598
s(I0
I32
I1
tp239
I63
s(I2
I2
I0
tp240
I500
s(I2
I74
I1
tp241
I912
s(I4
I60
I0
tp242
I622
s(I0
I55
I0
tp243
I274
s(I3
I71
I0
tp244
I949
s(I3
I31
I1
tp245
I825
s(I2
I85
I0
tp246
I215
s(I1
I66
I0
tp247
I426
s(I4
I43
I1
tp248
I891
s(I4
I99
I0
tp249
I849
s(I0
I70
I0
tp250
I282
s(I2
I100
I0
tp251
I108
s(I1
I19
I0
tp252
I450
s(I0
I45
I1
tp253
I55
s(I3
I37
I0
tp254
I810
s(I2
I79
I1
tp255
I916
s(I2
I20
I1
tp256
I770
s(I1
I100
I1
tp257
I113
s(I1
I44
I0
tp258
I460
s(I4
I34
I1
tp259
I873
s(I3
I26
I1
tp260
I829
s(I4
I25
I0
tp261
I588
s(I0
I84
I1
tp262
I181
s(I2
I14
I0
tp263
I367
s(I4
I72
I0
tp264
I726
s(I0
I59
I0
tp265
I272
s(I3
I91
I0
tp266
I522
s(I3
I19
I1
tp267
I685
s(I2
I25
I1
tp268
I768
s(I2
I65
I0
tp269
I504
s(I4
I39
I1
tp270
I894
s(I0
I74
I0
tp271
I259
s(I3
I8
I0
tp272
I561
s(I4
I7
I1
tp273
I734
s(I1
I7
I0
tp274
I338
s(I0
I81
I1
tp275
I170
s(I3
I57
I0
tp276
I938
s(I2
I0
I1
tp277
I648
s(I4
I62
I1
tp278
I752
s(I3
I46
I1
tp279
I821
s(I3
I73
I1
tp280
I978
s(I4
I21
I0
tp281
I590
s(I0
I16
I0
tp282
I137
s(I0
I88
I1
tp283
I183
s(I2
I58
I0
tp284
I361
s(I2
I98
I1
tp285
I643
s(I1
I17
I1
tp286
I203
s(I4
I68
I0
tp287
I724
s(I0
I47
I0
tp288
I385
s(I3
I39
I1
tp289
I802
s(I2
I5
I1
tp290
I670
s(I2
I77
I0
tp291
I491
s(I4
I51
I1
tp292
I868
s(I3
I68
I1
tp293
I576
s(I3
I28
I0
tp294
I544
s(I4
I100
I1
tp295
I998
s(I1
I11
I0
tp296
I332
s(I0
I69
I1
tp297
I161
s(I4
I96
I0
tp298
I851
s(I2
I12
I1
tp299
I658
s(I1
I28
I1
tp300
I89
s(I4
I74
I1
tp301
I1000
s(I3
I34
I1
tp302
I830
s(I3
I93
I1
tp303
I985
s(I2
I23
I0
tp304
I227
s(I4
I33
I0
tp305
I636
s(I0
I4
I0
tp306
I131
s(I0
I76
I1
tp307
I174
s(I2
I38
I0
tp308
I237
s(I1
I93
I0
tp309
I304
s(I1
I5
I1
tp310
I347
s(I4
I80
I0
tp311
I857
s(I0
I83
I0
tp312
I157
s(I3
I99
I0
tp313
I529
s(I3
I59
I1
tp314
I604
s(I2
I49
I1
tp315
I927
s(I4
I79
I1
tp316
I1004
s(I0
I98
I0
tp317
I139
s(I3
I16
I0
tp318
I554
s(I4
I98
I0
tp319
I852
s(I1
I63
I0
tp320
I437
s(I0
I73
I1
tp321
I163
s(I0
I18
I1
tp322
I13
s(I2
I56
I1
tp323
I903
s(I1
I0
I1
tp324
I344
s(I4
I14
I0
tp325
I593
s(I4
I70
I1
tp326
I759
s(I3
I54
I1
tp327
I980
s(I3
I81
I1
tp328
I988
s(I2
I3
I0
tp329
I497
s(I4
I61
I0
tp330
I614
s(I0
I8
I0
tp331
I129
s(I3
I70
I0
tp332
I951
s(I2
I82
I0
tp333
I494
s(I1
I65
I0
tp334
I436
s(I1
I9
I1
tp335
I326
s(I0
I31
I1
tp336
I62
s(I0
I71
I0
tp337
I286
s(I2
I61
I1
tp338
I900
s(I2
I101
I0
tp339
I114
s(I1
I18
I0
tp340
I329
s(I4
I91
I1
tp341
I1021
s(I3
I36
I0
tp342
I813
s(I1
I35
I0
tp343
I470
s(I0
I6
I1
tp344
I17
s(I2
I36
I1
tp345
I780
s(I1
I52
I1
tp346
I101
s(I1
I83
I1
tp347
I250
s(I4
I26
I0
tp348
I635
s(I4
I82
I1
tp349
I1007
s(I3
I101
I1
tp350
I854
s(I2
I15
I0
tp351
I366
s(I4
I73
I0
tp352
I835
s(I0
I60
I0
tp353
I263
s(I0
I100
I1
tp354
I319
s(I2
I94
I0
tp355
I219
s(I1
I61
I1
tp356
I67
s(I0
I3
I1
tp357
I30
s(I0
I75
I0
tp358
I262
s(I3
I11
I0
tp359
I564
s(I2
I41
I1
tp360
I776
s(I1
I94
I1
tp361
I107
s(I1
I6
I0
tp362
I348
s(I4
I87
I1
tp363
I1010
s(I4
I8
I1
tp364
I715
s(I3
I96
I1
tp365
I962
s(I3
I56
I0
tp366
I931
sS'nshanks'
p367
I5
s(I0
I97
I1
tp368
I313
s(I0
I10
I1
tp369
I19
s(I2
I80
I1
tp370
I919
s(I1
I56
I1
tp371
I75
s(I1
I71
I1
tp372
I87
s(I4
I22
I0
tp373
I586
s(I0
I17
I0
tp374
I412
sS'ncols'
p375
I2
s(I2
I59
I0
tp376
I509
s(I4
I13
I1
tp377
I717
s(I4
I69
I0
tp378
I833
s(I0
I32
I0
tp379
I394
s(I2
I74
I0
tp380
I484
s(I1
I33
I1
tp381
I95
s(I0
I55
I1
tp382
I43
s(I3
I31
I0
tp383
I551
s(I2
I85
I1
tp384
I671
s(I1
I66
I1
tp385
I83
s(I1
I10
I0
tp386
I335
s(I4
I99
I1
tp387
I1016
s(I4
I4
I1
tp388
I713
s(I0
I62
I1
tp389
I166
s(I2
I20
I0
tp390
I370
s(I2
I92
I1
tp391
I664
s(I1
I44
I1
tp392
I127
s(I1
I75
I1
tp393
I85
s(I4
I34
I0
tp394
I626
s(I0
I5
I0
tp395
I9
s(I3
I13
I1
tp396
I702
s(I2
I39
I0
tp397
I233
s(I1
I92
I0
tp398
I303
s(I4
I25
I1
tp399
I883
s(I4
I81
I0
tp400
I832
s(I0
I84
I0
tp401
I154
s(I3
I98
I0
tp402
I531
s(I0
I59
I1
tp403
I41
s(I0
I99
I0
tp404
I142
s(I3
I19
I0
tp405
I556
s(I2
I65
I1
tp406
I897
s(I1
I62
I0
tp407
I434
s(I4
I16
I1
tp408
I723
s(I3
I8
I1
tp409
I680
s(I4
I19
I1
tp410
I886
s(I4
I15
I0
tp411
I597
s(I0
I34
I1
tp412
I33
s(I2
I0
I0
tp413
I499
s(I2
I72
I1
tp414
I911
s(I4
I62
I0
tp415
I611
s(I0
I9
I0
tp416
I134
s(I3
I73
I0
tp417
I948
s(I3
I1
I1
tp418
I697
s(I2
I83
I0
tp419
I488
s(I1
I64
I0
tp420
I435
s(I4
I21
I1
tp421
I885
s(I0
I88
I0
tp422
I145
s(I2
I98
I0
tp423
I222
s(I1
I17
I0
tp424
I449
s(I0
I47
I1
tp425
I50
s(I4
I84
I1
tp426
I1008
s(I3
I39
I0
tp427
I809
s(I2
I77
I1
tp428
I917
s(I2
I18
I1
tp429
I771
s(I1
I34
I0
tp430
I476
s(I4
I44
I1
tp431
I889
s(I3
I28
I1
tp432
I828
s(I4
I27
I0
tp433
I584
s(I0
I86
I1
tp434
I182
s(I2
I12
I0
tp435
I380
s(I1
I99
I1
tp436
I110
s(I4
I74
I0
tp437
I727
s(I0
I61
I0
tp438
I268
s(I3
I93
I0
tp439
I521
s(I3
I21
I1
tp440
I684
s(I2
I23
I1
tp441
I772
s(I2
I95
I0
tp442
I206
s(I4
I33
I1
tp443
I892
s(I0
I76
I0
tp444
I258
s(I3
I10
I0
tp445
I562
s(I1
I5
I0
tp446
I339
s(I0
I83
I1
tp447
I179
s(I3
I59
I0
tp448
I937
s(I2
I30
I1
tp449
I798
s(I4
I56
I1
tp450
I745
s(I3
I16
I1
tp451
I688
s(I3
I75
I1
tp452
I977
s(I4
I23
I0
tp453
I589
s(I0
I18
I0
tp454
I408
s(I0
I90
I1
tp455
I292
s(I2
I56
I0
tp456
I360
s(I2
I96
I1
tp457
I535
s(I1
I23
I1
tp458
I71
s(I4
I70
I0
tp459
I725
s(I0
I33
I0
tp460
I400
s(I3
I81
I0
tp461
I513
s(I3
I41
I1
tp462
I803
s(I2
I3
I1
tp463
I669
s(I2
I75
I0
tp464
I503
s(I4
I61
I1
tp465
I757
s(I3
I70
I1
tp466
I580
s(I3
I30
I0
tp467
I548
s(I1
I9
I0
tp468
I333
s(I0
I71
I1
tp469
I162
s(I2
I101
I1
tp470
I533
s(I2
I10
I1
tp471
I657
s(I1
I18
I1
tp472
I201
s(I4
I52
I1
tp473
I864
s(I3
I36
I1
tp474
I800
s(I3
I95
I1
tp475
I855
s(I2
I21
I0
tp476
I226
s(I4
I35
I0
tp477
I631
s(I0
I6
I0
tp478
I130
s(I0
I78
I1
tp479
I175
s(I2
I36
I0
tp480
I236
s(I1
I83
I0
tp481
I418
s(I1
I27
I1
tp482
I92
s(I4
I82
I0
tp483
I863
s(I0
I85
I0
tp484
I158
s(I3
I101
I0
tp485
I528
s(I3
I61
I1
tp486
I605
s(I2
I15
I1
tp487
I661
s(I4
I73
I1
tp488
I767
s(I0
I100
I0
tp489
I140
s(I3
I18
I0
tp490
I555
s(I1
I61
I0
tp491
I438
s(I0
I75
I1
tp492
I173
s(I0
I20
I1
tp493
I3
s(I2
I54
I1
tp494
I924
s(I1
I6
I1
tp495
I322
s(I4
I8
I0
tp496
I707
s(I4
I64
I1
tp497
I753
s(I3
I56
I1
tp498
I981
s(I3
I83
I1
tp499
I989
s(I2
I1
I0
tp500
I498
s(I4
I63
I0
tp501
I613
s(I0
I10
I0
tp502
I135
s(I3
I72
I0
tp503
I515
s(I2
I80
I0
tp504
I493
s(I1
I71
I0
tp505
I430
s(I1
I15
I1
tp506
I204
s(I0
I17
I1
tp507
I14
s(I0
I89
I0
tp508
I151
s(I3
I49
I1
tp509
I816
s(I2
I59
I1
tp510
I901
s(I2
I99
I0
tp511
I221
s(I1
I16
I0
tp512
I328
s(I4
I69
I1
tp513
I765
s(I3
I38
I0
tp514
I814
s(I1
I33
I0
tp515
I471
s(I0
I24
I1
tp516
I1
s(I2
I34
I1
tp517
I796
s(I1
I10
I1
tp518
I320
s(I1
I81
I1
tp519
I196
s(I4
I4
I0
tp520
I729
s(I4
I92
I1
tp521
I1019
s(I2
I13
I0
tp522
I371
s(I4
I75
I0
tp523
I838
s(I0
I62
I0
tp524
I280
s(I3
I92
I0
tp525
I524
s(I2
I92
I0
tp526
I211
s(I1
I75
I0
tp527
I424
s(I1
I51
I1
tp528
I98
s(I0
I5
I1
tp529
I23
s(I0
I77
I0
tp530
I261
s(I3
I13
I0
tp531
I559
s(I2
I39
I1
tp532
I777
s(I1
I92
I1
tp533
I106
s(I1
I4
I0
tp534
I343
s(I4
I81
I1
tp535
I1013
s(I4
I10
I1
tp536
I720
s(I3
I98
I1
tp537
I961
s(I3
I58
I0
tp538
I930
s(I0
I99
I1
tp539
I312
s(I0
I12
I1
tp540
I7
s(I2
I46
I1
tp541
I788
s(I1
I62
I1
tp542
I81
s(I1
I69
I1
tp543
I195
s(I4
I16
I0
tp544
I594
s(I0
I19
I0
tp545
I413
s(I2
I57
I0
tp546
I508
s(I4
I15
I1
tp547
I716
s(I4
I71
I0
tp548
I834
s(I0
I34
I0
tp549
I395
s(I3
I80
I0
tp550
I519
s(I2
I72
I0
tp551
I480
s(I1
I39
I1
tp552
I115
s(I0
I9
I1
tp553
I21
s(I3
I1
I0
tp554
I676
s(I2
I83
I1
tp555
I914
s(I1
I64
I1
tp556
I82
s(I1
I8
I0
tp557
I334
s(I4
I6
I1
tp558
I714
s(I0
I48
I1
tp559
I44
s(I2
I18
I0
tp560
I369
s(I2
I90
I1
tp561
I647
s(I1
I34
I1
tp562
I118
s(I1
I73
I1
tp563
I86
s(I4
I44
I0
tp564
I742
s(I0
I7
I0
tp565
I8
s(I3
I15
I1
tp566
I687
s(I2
I37
I0
tp567
I234
s(I1
I82
I0
tp568
I309
s(I4
I27
I1
tp569
I882
s(I4
I83
I0
tp570
I859
s(I0
I86
I0
tp571
I155
s(I3
I100
I0
tp572
I532
s(I1
I99
I0
tp573
I298
s(I1
I43
I1
tp574
I121
s(I0
I61
I1
tp575
I191
s(I0
I101
I0
tp576
I141
s(I3
I21
I0
tp577
I552
s(I2
I95
I1
tp578
I640
s(I1
I60
I0
tp579
I433
s(I4
I18
I1
tp580
I995
s(I3
I10
I1
tp581
I681
s(I4
I96
I1
tp582
I996
s(I4
I9
I0
tp583
I704
s(I0
I36
I1
tp584
I32
s(I2
I30
I0
tp585
I243
s(I2
I70
I1
tp586
I910
s(I4
I56
I0
tp587
I620
s(I0
I11
I0
tp588
I133
s(I3
I75
I0
tp589
I947
s(I3
I3
I1
tp590
I696
s(I2
I81
I0
tp591
I489
s(I1
I70
I0
tp592
I428
s(I4
I23
I1
tp593
I884
s(I0
I90
I0
tp594
I146
s(I2
I96
I0
tp595
I223
s(I1
I23
I0
tp596
I454
s(I0
I33
I1
tp597
I56
s(I3
I41
I0
tp598
I934
s(I2
I75
I1
tp599
I907
s(I2
I16
I1
tp600
I663
s(I1
I32
I0
tp601
I477
s(I4
I46
I1
tp602
I867
s(I3
I30
I1
tp603
I827
s(I4
I5
I0
tp604
I709
s(I0
I40
I1
tp605
I51
s(I2
I10
I0
tp606
I381
s(I1
I97
I1
tp607
I111
s(I4
I52
I0
tp608
I737
s(I0
I63
I0
tp609
I267
s(I3
I95
I0
tp610
I520
s(I3
I23
I1
tp611
I693
s(I2
I21
I1
tp612
I773
s(I2
I93
I0
tp613
I207
s(I1
I74
I0
tp614
I416
s(I4
I35
I1
tp615
I893
s(I0
I78
I0
tp616
I257
s(I3
I12
I0
tp617
I563
s(I1
I27
I0
tp618
I452
s(I0
I85
I1
tp619
I178
s(I3
I61
I0
tp620
I936
s(I2
I28
I1
tp621
I799
s(I4
I58
I1
tp622
I746
s(I3
I18
I1
tp623
I689
s(I3
I77
I1
tp624
I976
s(I4
I17
I0
tp625
I596
s(I0
I20
I0
tp626
I409
s(I0
I92
I1
tp627
I293
s(I2
I54
I0
tp628
I382
s(I1
I21
I1
tp629
I88
s(I4
I64
I0
tp630
I610
s(I0
I35
I0
tp631
I399
s(I3
I83
I0
tp632
I543
s(I3
I43
I1
tp633
I819
s(I2
I1
I1
tp634
I668
s(I2
I73
I0
tp635
I483
s(I4
I63
I1
tp636
I756
s(I3
I72
I1
tp637
I581
s(I3
I0
I0
tp638
I567
s(I1
I15
I0
tp639
I448
s(I0
I89
I1
tp640
I288
s(I3
I49
I0
tp641
I955
s(I2
I99
I1
tp642
I642
s(I2
I8
I1
tp643
I656
s(I1
I16
I1
tp644
I200
s(I4
I54
I1
tp645
I744
s(I3
I38
I1
tp646
I804
s(I3
I65
I1
tp647
I607
s(I2
I19
I0
tp648
I364
s(I4
I45
I0
tp649
I760
s(I0
I24
I0
tp650
I411
s(I0
I64
I1
tp651
I167
s(I2
I34
I0
tp652
I245
s(I1
I81
I0
tp653
I417
s(I1
I25
I1
tp654
I70
s(I4
I92
I0
tp655
I846
s(I0
I87
I0
tp656
I159
s(I3
I63
I1
tp657
I606
s(I2
I13
I1
tp658
I652
s(I1
I98
I0
tp659
I296
s(I4
I75
I1
tp660
I1006
s(I3
I92
I1
tp661
I984
s(I3
I20
I0
tp662
I570
s(I1
I51
I0
tp663
I444
s(I0
I77
I1
tp664
I172
s(I0
I22
I1
tp665
I2
s(I2
I52
I1
tp666
I925
s(I1
I4
I1
tp667
I346
s(I4
I10
I0
tp668
I706
s(I4
I66
I1
tp669
I754
s(I3
I58
I1
tp670
I982
s(I3
I85
I1
tp671
I990
s(I2
I31
I0
tp672
I240
s(I4
I57
I0
tp673
I624
s(I0
I12
I0
tp674
I152
s(I3
I74
I0
tp675
I514
s(I2
I46
I0
tp676
I357
s(I1
I69
I0
tp677
I431
s(I1
I13
I1
tp678
I205
s(I0
I19
I1
tp679
I6
s(I0
I91
I0
tp680
I150
s(I3
I51
I1
tp681
I545
s(I2
I57
I1
tp682
I902
s(I2
I97
I0
tp683
I220
s(I1
I22
I0
tp684
I455
s(I4
I71
I1
tp685
I766
s(I3
I80
I1
tp686
I968
s(I3
I40
I0
tp687
I815
s(I1
I39
I0
tp688
I464
s(I0
I26
I1
tp689
I57
s(I2
I32
I1
tp690
I797
s(I1
I8
I1
tp691
I321
s(I1
I87
I1
tp692
I248
s(I4
I6
I0
tp693
I599
s(I4
I94
I1
tp694
I1023
s(I2
I11
I0
tp695
I372
s(I4
I53
I0
tp696
I736
s(I0
I48
I0
tp697
I277
s(I3
I94
I0
tp698
I525
s(I2
I90
I0
tp699
I210
s(I1
I73
I0
tp700
I425
s(I1
I49
I1
tp701
I97
s(I0
I7
I1
tp702
I22
s(I0
I79
I0
tp703
I260
s(I3
I15
I0
tp704
I558
s(I2
I37
I1
tp705
I778
s(I1
I82
I1
tp706
I218
s(I1
I26
I0
tp707
I473
s(I4
I83
I1
tp708
I1012
s(I3
I100
I1
tp709
I960
s(I3
I60
I0
tp710
I929
s(I1
I43
I0
tp711
I459
s(I0
I101
I1
tp712
I295
s(I0
I14
I1
tp713
I24
s(I2
I44
I1
tp714
I787
s(I1
I60
I1
tp715
I77
s(I1
I91
I1
tp716
I104
s(I4
I18
I0
tp717
I595
s(I0
I21
I0
tp718
I414
s(I2
I55
I0
tp719
I359
s(I4
I9
I1
tp720
I719
s(I4
I65
I0
tp721
I612
s(I0
I36
I0
tp722
I396
s(I3
I82
I0
tp723
I536
s(I2
I70
I0
tp724
I481
s(I1
I37
I1
tp725
I116
s(I0
I11
I1
tp726
I20
s(I3
I3
I0
tp727
I672
s(I2
I81
I1
tp728
I915
s(I1
I70
I1
tp729
I194
s(I1
I14
I0
tp730
I337
s(I4
I0
I1
tp731
I735
s(I3
I48
I0
tp732
I959
s(I0
I50
I1
tp733
I45
s(I2
I16
I0
tp734
I368
s(I2
I88
I1
tp735
I646
s(I1
I32
I1
tp736
I91
s(I1
I79
I1
tp737
I197
s(I4
I46
I0
tp738
I743
s(I0
I25
I0
tp739
I407
s(I2
I35
I0
tp740
I235
s(I1
I80
I0
tp741
I308
s(I4
I5
I1
tp742
I733
s(I4
I93
I0
tp743
I842
s(I0
I40
I0
tp744
I384
s(I1
I97
I0
tp745
I299
s(I1
I41
I1
tp746
I122
s(I0
I63
I1
tp747
I187
s(I3
I23
I0
tp748
I572
s(I2
I93
I1
tp749
I644
s(I1
I74
I1
tp750
I192
s(I1
I50
I0
tp751
I168
s(I4
I28
I1
tp752
I878
s(I3
I12
I1
tp753
I682
s(I4
I11
I0
tp754
I705
s(I0
I38
I1
tp755
I36
s(I2
I28
I0
tp756
I242
s(I2
I68
I1
tp757
I906
s(I4
I58
I0
tp758
I621
s(I0
I13
I0
tp759
I132
s(I3
I77
I0
tp760
I516
s(I3
I5
I1
tp761
I679
s(I2
I47
I0
tp762
I355
s(I1
I68
I0
tp763
I427
s(I4
I17
I1
tp764
I887
s(I0
I92
I0
tp765
I147
s(I1
I21
I0
tp766
I451
s(I0
I35
I1
tp767
I39
s(I3
I43
I0
tp768
I933
s(I2
I73
I1
tp769
I908
s(I4
I87
I0
tp770
I840
s(I1
I38
I0
tp771
I467
s(I4
I40
I1
tp772
I871
s(I3
I0
I1
tp773
I677
s(I4
I7
I0
tp774
I708
s(I0
I42
I1
tp775
I52
s(I2
I8
I0
tp776
I375
s(I4
I54
I0
tp777
I619
s(I0
I49
I0
tp778
I386
s(I3
I65
I0
tp779
I941
s(I3
I25
I1
tp780
I692
s(I2
I19
I1
tp781
I659
s(I2
I91
I0
tp782
I212
s(I1
I72
I0
tp783
I429
s(I4
I45
I1
tp784
I890
s(I4
I101
I0
tp785
I848
s(I0
I64
I0
tp786
I264
s(I3
I14
I0
tp787
I553
s(I1
I25
I0
tp788
I453
s(I0
I87
I1
tp789
I177
s(I3
I63
I0
tp790
I942
s(I2
I26
I1
tp791
I792
s(I1
I98
I1
tp792
I112
s(I1
I42
I0
tp793
I469
s(I4
I36
I1
tp794
I874
s(I3
I20
I1
tp795
I690
s(I3
I79
I1
tp796
I975
s(I4
I19
I0
tp797
I591
s(I0
I22
I0
tp798
I410
s(I0
I94
I1
tp799
I294
s(I2
I52
I0
tp800
I383
s(I4
I66
I0
tp801
I609
s(I0
I37
I0
tp802
I398
s(I3
I85
I0
tp803
I539
s(I3
I45
I1
tp804
I818
s(I2
I31
I1
tp805
I794
s(I2
I71
I0
tp806
I482
s(I4
I57
I1
tp807
I748
s(I3
I74
I1
tp808
I972
s(I3
I2
I0
tp809
I675
s(I1
I13
I0
tp810
I331
s(I0
I91
I1
tp811
I289
s(I3
I51
I0
tp812
I954
s(I2
I97
I1
tp813
I641
s(I2
I6
I1
tp814
I651
s(I1
I22
I1
tp815
I64
s(I4
I48
I1
tp816
I866
s(I3
I40
I1
tp817
I805
s(I3
I67
I1
tp818
I600
s(I2
I17
I0
tp819
I365
s(I4
I47
I0
tp820
I618
s(I0
I26
I0
tp821
I401
s(I0
I66
I1
tp822
I184
s(I2
I32
I0
tp823
I244
s(I1
I87
I0
tp824
I307
s(I1
I31
I1
tp825
I94
s(I4
I94
I0
tp826
I847
s(I0
I41
I0
tp827
I392
s(I3
I33
I1
tp828
I824
s(I2
I11
I1
tp829
I653
s(I1
I96
I0
tp830
I316
s(I4
I53
I1
tp831
I750
s(I3
I94
I1
tp832
I963
s(I3
I22
I0
tp833
I571
s(I1
I49
I0
tp834
I456
s(I0
I79
I1
tp835
I171
s(I2
I50
I1
tp836
I926
s(I1
I26
I1
tp837
I69
s(I4
I100
I0
tp838
I853
s(I4
I76
I1
tp839
I1001
s(I3
I60
I1
tp840
I601
s(I3
I87
I1
tp841
I991
s(I2
I29
I0
tp842
I241
s(I4
I59
I0
tp843
I623
s(I0
I14
I0
tp844
I136
s(I3
I76
I0
tp845
I517
s(I2
I44
I0
tp846
I356
s(I1
I91
I0
tp847
I305
s(I1
I3
I1
tp848
I351
s(I0
I21
I1
tp849
I5
s(I0
I93
I0
tp850
I149
s(I3
I53
I1
tp851
I546
s(I2
I55
I1
tp852
I790
s(I1
I20
I0
tp853
I330
s(I4
I65
I1
tp854
I755
s(I3
I82
I1
tp855
I969
s(I3
I42
I0
tp856
I935
s(I1
I37
I0
tp857
I465
s(I0
I28
I1
tp858
I58
s(I2
I62
I1
tp859
I922
s(I1
I14
I1
tp860
I323
s(I1
I85
I1
tp861
I249
s(I4
I0
I0
tp862
I711
s(I4
I88
I1
tp863
I1014
s(I3
I48
I1
tp864
I822
s(I2
I9
I0
tp865
I373
s(I4
I55
I0
tp866
I625
s(I0
I50
I0
tp867
I278
s(I3
I64
I0
tp868
I944
s(I2
I88
I0
tp869
I209
s(I1
I79
I0
tp870
I422
s(I1
I55
I1
tp871
I74
s(I0
I25
I1
tp872
I0
s(I0
I65
I0
tp873
I266
s(I2
I35
I1
tp874
I779
s(I1
I80
I1
tp875
I217
s(I1
I24
I0
tp876
I472
s(I4
I93
I1
tp877
I1022
s(I3
I62
I0
tp878
I943
s(I1
I41
I0
tp879
I463
s(I0
I0
I1
tp880
I26
s(I2
I42
I1
tp881
I786
s(I1
I50
I1
tp882
I100
s(I1
I89
I1
tp883
I231
s(I4
I28
I0
tp884
I639
s(I0
I23
I0
tp885
I415
s(I2
I53
I0
tp886
I376
s(I3
I90
I1
tp887
I967
s(I4
I67
I0
tp888
I608
s(I0
I38
I0
tp889
I397
s(I3
I84
I0
tp890
I542
s(I2
I68
I0
tp891
I511
s(I1
I59
I1
tp892
I72
s(I0
I13
I1
tp893
I16
s(I3
I5
I0
tp894
I673
s(I2
I47
I1
tp895
I783
s(I1
I68
I1
tp896
I84
s(I1
I12
I0
tp897
I336
s(I4
I2
I1
tp898
I712
s(I3
I50
I0
tp899
I958
s(I0
I52
I1
tp900
I46
s(I3
I78
I0
tp901
I518
s(I2
I86
I1
tp902
I645
s(I1
I38
I1
tp903
I125
s(I1
I77
I1
tp904
I198
s(I4
I40
I0
tp905
I740
s(I0
I27
I0
tp906
I406
s(I2
I33
I0
tp907
I239
s(I1
I86
I0
tp908
I311
s(I3
I88
I1
tp909
I966
s(I4
I95
I0
tp910
I841
s(I0
I42
I0
tp911
I388
s(I1
I47
I1
tp912
I103
s(I0
I49
I1
tp913
I49
s(I3
I25
I0
tp914
I573
s(I2
I91
I1
tp915
I665
s(I1
I72
I1
tp916
I193
s(I1
I48
I0
tp917
I462
s(I4
I101
I1
tp918
I999
s(I4
I30
I1
tp919
I879
s(I3
I14
I1
tp920
I683
s(I4
I84
I0
tp921
I862
s(I0
I56
I1
tp922
I189
s(I2
I26
I0
tp923
I228
s(I2
I66
I1
tp924
I905
s(I1
I42
I1
tp925
I123
s(I4
I36
I0
tp926
I627
s(I0
I15
I0
tp927
I128
s(I3
I79
I0
tp928
I512
s(I3
I7
I1
tp929
I678
s(I2
I45
I0
tp930
I354
s(I1
I90
I0
tp931
I302
s(I3
I86
I1
tp932
I971
s(I0
I94
I0
tp933
I148
s(I0
I37
I1
tp934
I38
s(I3
I45
I0
tp935
I932
s(I2
I71
I1
tp936
I909
s(I1
I36
I0
tp937
I466
s(I4
I42
I1
tp938
I888
s(I3
I2
I1
tp939
I698
s(I4
I1
I0
tp940
I731
s(I0
I44
I1
tp941
I53
s(I2
I6
I0
tp942
I502
s(I2
I78
I1
tp943
I918
s(I1
I101
I1
tp944
I109
s(I4
I48
I0
tp945
I739
s(I0
I51
I0
tp946
I387
s(I3
I67
I0
tp947
I940
s(I3
I27
I1
tp948
I691
s(I2
I17
I1
tp949
I660
s(I2
I89
I0
tp950
I213
s(I1
I78
I0
tp951
I421
s(I4
I47
I1
tp952
I870
s(I0
I66
I0
tp953
I265
s(I1
I31
I0
tp954
I475
s(I0
I41
I1
tp955
I34
s(I3
I33
I0
tp956
I550
s(I2
I24
I1
tp957
I775
s(I1
I96
I1
tp958
I66
s(I1
I40
I0
tp959
I468
s(I4
I38
I1
tp960
I875
s(I3
I22
I1
tp961
I694
s(I4
I29
I0
tp962
I578
s(I0
I80
I1
tp963
I176
s(I2
I50
I0
tp964
I379
s(I4
I76
I0
tp965
I839
s(I0
I39
I0
tp966
I393
s(I3
I87
I0
tp967
I538
s(I3
I47
I1
tp968
I817
s(I2
I29
I1
tp969
I795
s(I2
I69
I0
tp970
I486
s(I4
I59
I1
tp971
I747
s(I3
I76
I1
tp972
I973
s(I3
I4
I0
tp973
I674
s(I1
I3
I0
tp974
I340
s(I0
I93
I1
tp975
I290
s(I3
I53
I0
tp976
I953
s(I2
I4
I1
tp977
I650
s(I1
I20
I1
tp978
I65
s(I4
I50
I1
tp979
I865
s(I3
I42
I1
tp980
I806
s(I3
I69
I1
tp981
I583
s(I4
I41
I0
tp982
I762
s(I0
I28
I0
tp983
I402
s(I0
I68
I1
tp984
I160
s(I2
I62
I0
tp985
I363
s(I1
I85
I0
tp986
I419
s(I1
I29
I1
tp987
I93
s(I4
I88
I0
tp988
I860
s(I0
I43
I0
tp989
I391
s(I3
I35
I1
tp990
I807
s(I2
I9
I1
tp991
I654
s(I4
I55
I1
tp992
I749
s(I3
I64
I1
tp993
I603
s(I3
I24
I0
tp994
I575
s(I1
I55
I0
tp995
I446
s(I0
I65
I1
tp996
I186
s(I2
I48
I1
tp997
I789
s(I1
I24
I1
tp998
I68
s(I4
I78
I1
tp999
I1002
s(I3
I62
I1
tp1000
I602
s(I3
I89
I1
tp1001
I987
s(I2
I27
I0
tp1002
I246
s(I4
I37
I0
tp1003
I630
s(I0
I0
I0
tp1004
I28
s(I0
I72
I1
tp1005
I165
s(I2
I42
I0
tp1006
I352
s(I1
I89
I0
tp1007
I306
s(I1
I1
I1
tp1008
I350
s(I0
I23
I1
tp1009
I4
s(I0
I95
I0
tp1010
I144
s(I3
I55
I1
tp1011
I547
s(I2
I53
I1
tp1012
I791
s(I4
I67
I1
tp1013
I764
s(I3
I84
I1
tp1014
I970
s(I3
I44
I0
tp1015
I952
s(I1
I59
I0
tp1016
I439
s(I0
I30
I1
tp1017
I59
s(I2
I60
I1
tp1018
I921
s(I1
I12
I1
tp1019
I324
s(I4
I2
I0
tp1020
I728
s(I4
I90
I1
tp1021
I1015
s(I3
I50
I1
tp1022
I823
s(I2
I7
I0
tp1023
I374
s(I4
I49
I0
tp1024
I617
s(I0
I52
I0
tp1025
I279
s.