(dp0
(I2
I1
I28
tp1
I972
s(I1
I1
I32
tp2
I759
s(I1
I2
I8
tp3
I847
s(I5
I1
I66
tp4
I32
s(I3
I1
I101
tp5
I668
s(I2
I2
I86
tp6
I554
s(I3
I1
I85
tp7
I660
s(I1
I1
I25
tp8
I1005
s(I1
I2
I47
tp9
I625
s(I5
I1
I43
tp10
I41
s(I5
I2
I1
tp11
I141
s(I3
I2
I30
tp12
I480
s(I2
I2
I26
tp13
I517
s(I4
I2
I35
tp14
I432
s(I4
I1
I25
tp15
I198
s(I3
I1
I43
tp16
I901
s(I1
I2
I70
tp17
I637
s(I5
I2
I40
tp18
I280
s(I3
I2
I33
tp19
I486
s(I1
I1
I67
tp20
I893
s(I3
I2
I84
tp21
I369
s(I4
I2
I8
tp22
I317
s(I4
I1
I32
tp23
I194
s(I3
I1
I4
tp24
I643
s(I2
I2
I33
tp25
I950
s(I4
I1
I83
tp26
I202
s(I2
I1
I20
tp27
I969
s(I1
I1
I56
tp28
I867
s(I5
I1
I74
tp29
I58
s(I4
I2
I81
tp30
I451
s(I2
I2
I57
tp31
I932
s(I2
I1
I79
tp32
I693
s(I1
I1
I17
tp33
I1011
s(I1
I2
I39
tp34
I613
s(I5
I1
I19
tp35
I179
s(I5
I2
I9
tp36
I149
s(I3
I2
I6
tp37
I223
s(I1
I1
I98
tp38
I713
s(I2
I2
I18
tp39
I542
s(I3
I1
I88
tp40
I662
s(I4
I2
I43
tp41
I439
s(I4
I1
I1
tp42
I109
s(I3
I1
I35
tp43
I898
s(I2
I1
I102
tp44
I677
s(I1
I2
I94
tp45
I707
s(I5
I2
I80
tp46
I410
s(I3
I2
I41
tp47
I510
s(I1
I1
I91
tp48
I718
s(I5
I1
I85
tp49
I14
s(I3
I2
I92
tp50
I381
s(I4
I1
I40
tp51
I81
s(I2
I2
I88
tp52
I553
s(I3
I1
I14
tp53
I646
s(I4
I1
I91
tp54
I325
s(I2
I1
I44
tp55
I982
s(I1
I1
I48
tp56
I744
s(I1
I2
I24
tp57
I856
s(I5
I1
I50
tp58
I46
s(I3
I1
I75
tp59
I769
s(I4
I2
I89
tp60
I331
s(I2
I2
I49
tp61
I953
s(I4
I1
I98
tp62
I346
s(I3
I1
I69
tp63
I793
s(I2
I1
I75
tp64
I691
s(I2
I1
I71
tp65
I825
s(I1
I2
I63
tp66
I629
s(I5
I1
I27
tp67
I173
s(I5
I2
I49
tp68
I275
s(I3
I2
I14
tp69
I209
s(I2
I1
I7
tp70
I855
s(I4
I2
I19
tp71
I418
s(I4
I1
I9
tp72
I252
s(I3
I1
I59
tp73
I785
s(I3
I1
I38
tp74
I904
s(I1
I2
I86
tp75
I594
s(I3
I1
I27
tp76
I907
s(I5
I2
I88
tp77
I136
s(I3
I1
I94
tp78
I656
s(I2
I2
I69
tp79
I550
s(I5
I1
I93
tp80
I21
s(I3
I2
I68
tp81
I245
s(I3
I1
I20
tp82
I229
s(I4
I1
I67
tp83
I117
s(I2
I1
I36
tp84
I577
s(I1
I1
I8
tp85
I1023
s(I1
I2
I16
tp86
I861
s(I5
I1
I58
tp87
I53
s(I5
I2
I18
tp88
I154
s(I4
I2
I65
tp89
I465
s(I2
I2
I9
tp90
I521
s(I3
I1
I64
tp91
I781
s(I4
I2
I50
tp92
I440
s(I2
I2
I42
tp93
I929
s(I2
I1
I95
tp94
I678
s(I1
I2
I55
tp95
I618
s(I5
I1
I3
tp96
I312
s(I5
I2
I57
tp97
I390
s(I3
I2
I54
tp98
I358
s(I4
I2
I27
tp99
I424
s(I4
I1
I49
tp100
I99
s(I3
I1
I51
tp101
I923
s(I5
I2
I64
tp102
I397
s(I2
I1
I5
tp103
I965
s(I1
I1
I43
tp104
I747
s(I5
I1
I69
tp105
I56
s(I3
I2
I76
tp106
I228
s(I4
I2
I96
tp107
I348
s(I2
I2
I40
tp108
I943
s(I2
I2
I37
tp109
I941
s(I4
I1
I75
tp110
I92
s(I2
I1
I60
tp111
I806
s(I1
I2
I40
tp112
I611
s(I5
I1
I34
tp113
I160
s(I5
I2
I26
tp114
I258
s(I3
I2
I23
tp115
I490
s(I4
I2
I73
tp116
I479
s(I2
I2
I29
tp117
I948
s(I2
I2
I1
tp118
I528
s(I4
I2
I58
tp119
I460
s(I4
I1
I18
tp120
I251
s(I2
I1
I87
tp121
I687
s(I1
I2
I79
tp122
I589
s(I5
I1
I11
tp123
I289
s(I5
I2
I33
tp124
I285
s(I3
I2
I62
tp125
I238
s(I1
I1
I74
tp126
I878
s(I5
I1
I100
tp127
I27
s(I2
I2
I48
tp128
I956
s(I4
I2
I3
tp129
I298
s(I4
I1
I57
tp130
I120
s(I2
I2
I79
tp131
I572
s(I4
I1
I84
tp132
I201
s(I1
I2
I102
tp133
I711
s(I5
I2
I72
tp134
I403
s(I2
I1
I29
tp135
I978
s(I1
I1
I35
tp136
I764
s(I1
I2
I9
tp137
I842
s(I5
I1
I77
tp138
I0
s(I3
I1
I100
tp139
I649
s(I3
I1
I33
tp140
I899
s(I2
I1
I52
tp141
I823
s(I1
I1
I24
tp142
I1002
s(I1
I2
I32
tp143
I725
s(I5
I1
I42
tp144
I40
s(I5
I2
I2
tp145
I140
s(I3
I2
I31
tp146
I482
s(I2
I2
I25
tp147
I516
s(I4
I2
I34
tp148
I427
s(I4
I1
I26
tp149
I199
s(I3
I1
I42
tp150
I921
s(I1
I2
I71
tp151
I579
s(I5
I2
I41
tp152
I268
s(I3
I2
I38
tp153
I506
s(I1
I1
I66
tp154
I874
s(I2
I1
I68
tp155
I830
s(I3
I2
I85
tp156
I365
s(I4
I2
I11
tp157
I305
s(I4
I1
I33
tp158
I195
s(I2
I2
I71
tp159
I551
s(I4
I1
I92
tp160
I320
s(I3
I1
I48
tp161
I924
s(I3
I1
I23
tp162
I916
s(I3
I1
I9
tp163
I644
s(I1
I1
I59
tp164
I891
s(I1
I2
I1
tp165
I848
s(I5
I1
I53
tp166
I49
s(I2
I1
I55
tp167
I817
s(I4
I2
I80
tp168
I455
s(I2
I2
I56
tp169
I808
s(I2
I1
I76
tp170
I829
s(I1
I1
I16
tp171
I1009
s(I1
I2
I56
tp172
I743
s(I5
I1
I18
tp173
I181
s(I5
I2
I10
tp174
I147
s(I3
I2
I7
tp175
I206
s(I1
I1
I101
tp176
I710
s(I2
I2
I17
tp177
I539
s(I1
I1
I1
tp178
I999
s(I4
I2
I42
tp179
I433
s(I4
I1
I2
tp180
I113
s(I2
I2
I102
tp181
I567
s(I1
I2
I95
tp182
I708
s(I5
I2
I81
tp183
I414
s(I3
I2
I46
tp184
I360
s(I1
I1
I90
tp185
I721
s(I5
I1
I84
tp186
I13
s(I3
I2
I93
tp187
I373
s(I4
I1
I41
tp188
I67
s(I2
I2
I95
tp189
I566
s(I4
I1
I68
tp190
I118
s(I2
I1
I45
tp191
I983
s(I1
I1
I51
tp192
I868
s(I1
I2
I25
tp193
I837
s(I5
I1
I61
tp194
I34
s(I3
I2
I100
tp195
I500
s(I4
I2
I88
tp196
I337
s(I1
I2
I29
tp197
I835
s(I4
I2
I53
tp198
I456
s(I4
I1
I99
tp199
I351
s(I2
I1
I90
tp200
I682
s(I1
I2
I48
tp201
I619
s(I5
I1
I26
tp202
I174
s(I5
I2
I50
tp203
I279
s(I3
I2
I15
tp204
I214
s(I4
I2
I18
tp205
I310
s(I4
I1
I10
tp206
I106
s(I3
I1
I58
tp207
I787
s(I1
I2
I87
tp208
I597
s(I5
I2
I89
tp209
I132
s(I2
I1
I10
tp210
I984
s(I1
I1
I82
tp211
I994
s(I5
I1
I92
tp212
I19
s(I3
I2
I69
tp213
I239
s(I2
I2
I87
tp214
I558
s(I4
I1
I76
tp215
I69
s(I3
I1
I32
tp216
I910
s(I5
I2
I96
tp217
I130
s(I2
I1
I37
tp218
I607
s(I1
I1
I11
tp219
I1021
s(I3
I1
I67
tp220
I779
s(I5
I1
I37
tp221
I186
s(I5
I2
I19
tp222
I157
s(I4
I2
I64
tp223
I467
s(I2
I2
I8
tp224
I525
s(I4
I2
I61
tp225
I463
s(I2
I1
I92
tp226
I681
s(I1
I2
I72
tp227
I638
s(I5
I1
I2
tp228
I319
s(I5
I2
I58
tp229
I389
s(I3
I2
I55
tp230
I355
s(I4
I2
I26
tp231
I420
s(I4
I1
I50
tp232
I101
s(I3
I1
I50
tp233
I925
s(I5
I2
I65
tp234
I398
s(I2
I1
I2
tp235
I960
s(I1
I1
I42
tp236
I751
s(I5
I1
I68
tp237
I33
s(I3
I2
I77
tp238
I247
s(I4
I2
I99
tp239
I340
s(I2
I2
I47
tp240
I939
s(I3
I1
I19
tp241
I914
s(I3
I1
I86
tp242
I663
s(I1
I1
I3
tp243
I1016
s(I1
I2
I41
tp244
I614
s(I5
I1
I45
tp245
I42
s(I5
I2
I27
tp246
I262
s(I3
I2
I20
tp247
I494
s(I4
I2
I72
tp248
I478
s(I3
I1
I68
tp249
I796
s(I4
I2
I37
tp250
I436
s(I4
I1
I19
tp251
I250
s(I2
I1
I84
tp252
I689
s(I1
I2
I64
tp253
I628
s(I5
I1
I10
tp254
I293
s(I5
I2
I34
tp255
I281
s(I3
I2
I63
tp256
I233
s(I1
I1
I77
tp257
I883
s(I3
I2
I82
tp258
I370
s(I4
I2
I2
tp259
I297
s(I4
I1
I58
tp260
I127
s(I2
I2
I78
tp261
I575
s(I2
I2
I34
tp262
I946
s(I4
I1
I85
tp263
I203
s(I5
I2
I73
tp264
I405
s(I2
I1
I26
tp265
I973
s(I1
I1
I34
tp266
I758
s(I1
I2
I10
tp267
I846
s(I5
I1
I76
tp268
I57
s(I3
I1
I99
tp269
I669
s(I2
I1
I53
tp270
I816
s(I1
I1
I27
tp271
I1006
s(I1
I2
I33
tp272
I833
s(I5
I1
I21
tp273
I170
s(I5
I2
I3
tp274
I142
s(I3
I2
I28
tp275
I484
s(I2
I2
I24
tp276
I518
s(I4
I2
I45
tp277
I447
s(I4
I1
I27
tp278
I85
s(I3
I1
I41
tp279
I900
s(I1
I2
I88
tp280
I593
s(I5
I2
I42
tp281
I263
s(I3
I2
I39
tp282
I505
s(I1
I1
I69
tp283
I892
s(I3
I2
I90
tp284
I380
s(I4
I2
I10
tp285
I303
s(I4
I1
I34
tp286
I84
s(I3
I1
I2
tp287
I527
s(I4
I1
I93
tp288
I326
s(I2
I1
I18
tp289
I970
s(I1
I1
I58
tp290
I889
s(I1
I2
I2
tp291
I853
s(I5
I1
I52
tp292
I45
s(I3
I1
I66
tp293
I780
s(I4
I2
I83
tp294
I450
s(I2
I2
I63
tp295
I809
s(I4
I1
I100
tp296
I345
s(I2
I1
I77
tp297
I692
s(I1
I1
I19
tp298
I1012
s(I1
I2
I57
tp299
I760
s(I5
I1
I29
tp300
I163
s(I5
I2
I11
tp301
I150
s(I3
I2
I4
tp302
I222
s(I1
I1
I100
tp303
I712
s(I2
I2
I16
tp304
I541
s(I4
I2
I21
tp305
I417
s(I4
I1
I3
tp306
I110
s(I2
I2
I101
tp307
I676
s(I2
I1
I100
tp308
I698
s(I1
I2
I80
tp309
I586
s(I3
I1
I28
tp310
I912
s(I5
I2
I82
tp311
I409
s(I3
I2
I47
tp312
I359
s(I1
I1
I93
tp313
I719
s(I5
I1
I87
tp314
I15
s(I3
I2
I66
tp315
I236
s(I4
I1
I42
tp316
I77
s(I2
I2
I94
tp317
I561
s(I3
I1
I79
tp318
I772
s(I4
I1
I69
tp319
I95
s(I2
I1
I42
tp320
I601
s(I1
I1
I50
tp321
I864
s(I1
I2
I26
tp322
I839
s(I5
I1
I60
tp323
I52
s(I5
I2
I20
tp324
I153
s(I3
I2
I101
tp325
I498
s(I4
I2
I91
tp326
I332
s(I2
I2
I55
tp327
I928
s(I4
I2
I52
tp328
I168
s(I3
I1
I82
tp329
I770
s(I1
I2
I49
tp330
I736
s(I5
I1
I5
tp331
I313
s(I5
I2
I51
tp332
I387
s(I3
I2
I12
tp333
I210
s(I4
I2
I29
tp334
I425
s(I4
I1
I11
tp335
I104
s(I3
I1
I57
tp336
I784
s(I5
I2
I90
tp337
I152
s(I2
I1
I11
tp338
I986
s(I1
I1
I85
tp339
I887
s(I5
I1
I95
tp340
I22
s(I3
I2
I74
tp341
I242
s(I3
I1
I18
tp342
I230
s(I2
I2
I38
tp343
I944
s(I4
I1
I77
tp344
I70
s(I5
I2
I97
tp345
I9
s(I2
I1
I34
tp346
I576
s(I1
I1
I10
tp347
I1019
s(I1
I2
I18
tp348
I862
s(I5
I1
I36
tp349
I184
s(I5
I2
I28
tp350
I259
s(I4
I2
I67
tp351
I470
s(I2
I2
I15
tp352
I538
s(I4
I2
I60
tp353
I469
s(I4
I1
I20
tp354
I218
s(I2
I1
I93
tp355
I700
s(I1
I2
I73
tp356
I578
s(I5
I1
I13
tp357
I288
s(I5
I2
I59
tp358
I391
s(I3
I2
I52
tp359
I379
s(I4
I2
I5
tp360
I299
s(I4
I1
I51
tp361
I98
s(I3
I1
I49
tp362
I791
s(I1
I2
I96
tp363
I599
s(I5
I2
I66
tp364
I396
s(I2
I1
I3
tp365
I964
s(I1
I1
I45
tp366
I748
s(I5
I1
I71
tp367
I62
s(I4
I2
I98
tp368
I343
s(I2
I2
I46
tp369
I931
s(I3
I1
I65
tp370
I778
s(I3
I1
I73
tp371
I795
s(I2
I1
I58
tp372
I820
s(I1
I1
I2
tp373
I998
s(I1
I2
I42
tp374
I622
s(I5
I1
I44
tp375
I188
s(I5
I2
I4
tp376
I139
s(I3
I2
I21
tp377
I489
s(I4
I2
I75
tp378
I452
s(I2
I2
I7
tp379
I520
s(I3
I1
I92
tp380
I657
s(I4
I2
I36
tp381
I426
s(I4
I1
I28
tp382
I192
s(I2
I1
I85
tp383
I686
s(I1
I2
I65
tp384
I630
s(I5
I2
I35
tp385
I284
s(I3
I2
I60
tp386
I352
s(I1
I1
I76
tp387
I877
s(I5
I1
I102
tp388
I26
s(I3
I2
I83
tp389
I364
s(I4
I2
I13
tp390
I306
s(I4
I1
I59
tp391
I121
s(I2
I2
I77
tp392
I573
s(I4
I1
I86
tp393
I200
s(I3
I1
I24
tp394
I918
s(I5
I2
I74
tp395
I402
s(I2
I2
I31
tp396
I949
s(I1
I1
I37
tp397
I755
s(I1
I2
I11
tp398
I843
s(I5
I1
I79
tp399
I4
s(I3
I1
I98
tp400
I650
s(I3
I1
I3
tp401
I642
s(I2
I1
I50
tp402
I979
s(I1
I1
I26
tp403
I1001
s(I1
I2
I34
tp404
I724
s(I5
I1
I20
tp405
I180
s(I5
I2
I12
tp406
I146
s(I3
I2
I29
tp407
I483
s(I3
I1
I91
tp408
I653
s(I4
I2
I44
tp409
I443
s(I4
I1
I4
tp410
I112
s(I3
I1
I40
tp411
I922
s(I1
I1
I14
tp412
I1014
s(I1
I2
I89
tp413
I598
s(I5
I2
I43
tp414
I272
s(I3
I2
I36
tp415
I507
s(I1
I1
I68
tp416
I873
s(I3
I2
I91
tp417
I372
s(I4
I1
I35
tp418
I78
s(I3
I1
I1
tp419
I533
s(I4
I1
I94
tp420
I321
s(I2
I1
I19
tp421
I989
s(I1
I1
I61
tp422
I895
s(I1
I2
I3
tp423
I849
s(I5
I1
I55
tp424
I50
s(I1
I2
I17
tp425
I858
s(I3
I2
I98
tp426
I501
s(I4
I2
I82
tp427
I330
s(I2
I2
I62
tp428
I815
s(I4
I1
I101
tp429
I350
s(I2
I1
I74
tp430
I828
s(I1
I1
I18
tp431
I1008
s(I1
I2
I58
tp432
I742
s(I5
I1
I28
tp433
I169
s(I5
I2
I52
tp434
I278
s(I3
I2
I5
tp435
I220
s(I2
I2
I23
tp436
I512
s(I4
I2
I20
tp437
I309
s(I4
I1
I12
tp438
I105
s(I2
I2
I100
tp439
I675
s(I2
I1
I101
tp440
I697
s(I1
I2
I81
tp441
I590
s(I5
I2
I83
tp442
I413
s(I3
I2
I44
tp443
I361
s(I1
I1
I92
tp444
I720
s(I5
I1
I86
tp445
I12
s(I3
I2
I67
tp446
I235
s(I4
I1
I43
tp447
I72
s(I2
I2
I93
tp448
I565
s(I4
I1
I70
tp449
I91
s(I2
I1
I43
tp450
I604
s(I1
I1
I53
tp451
I869
s(I1
I2
I27
tp452
I838
s(I5
I1
I63
tp453
I37
s(I5
I2
I21
tp454
I156
s(I4
I2
I90
tp455
I336
s(I2
I2
I54
tp456
I959
s(I4
I2
I55
tp457
I457
s(I1
I1
I83
tp458
I886
s(I2
I1
I27
tp459
I977
s(I2
I1
I66
tp460
I800
s(I1
I2
I50
tp461
I737
s(I5
I1
I4
tp462
I315
s(I5
I2
I60
tp463
I388
s(I3
I2
I13
tp464
I213
s(I4
I2
I28
tp465
I416
s(I4
I1
I52
tp466
I100
s(I3
I1
I56
tp467
I788
s(I2
I2
I27
tp468
I947
s(I5
I2
I91
tp469
I133
s(I2
I1
I8
tp470
I963
s(I1
I1
I84
tp471
I995
s(I5
I1
I94
tp472
I18
s(I3
I2
I75
tp473
I246
s(I4
I2
I101
tp474
I341
s(I2
I2
I85
tp475
I557
s(I4
I1
I78
tp476
I68
s(I2
I2
I80
tp477
I571
s(I5
I2
I98
tp478
I131
s(I2
I1
I35
tp479
I600
s(I1
I1
I13
tp480
I1020
s(I1
I2
I19
tp481
I859
s(I5
I1
I39
tp482
I187
s(I5
I2
I29
tp483
I287
s(I3
I2
I18
tp484
I495
s(I4
I2
I66
tp485
I466
s(I2
I2
I14
tp486
I540
s(I4
I2
I63
tp487
I464
s(I4
I1
I21
tp488
I196
s(I3
I1
I87
tp489
I661
s(I1
I2
I74
tp490
I639
s(I5
I1
I12
tp491
I292
s(I5
I2
I36
tp492
I265
s(I3
I2
I53
tp493
I378
s(I4
I2
I4
tp494
I296
s(I4
I1
I60
tp495
I123
s(I3
I1
I36
tp496
I905
s(I1
I2
I97
tp497
I709
s(I5
I2
I67
tp498
I399
s(I1
I1
I44
tp499
I746
s(I5
I1
I70
tp500
I63
s(I2
I2
I45
tp501
I938
s(I2
I1
I59
tp502
I819
s(I1
I1
I5
tp503
I1017
s(I1
I2
I43
tp504
I623
s(I5
I1
I47
tp505
I43
s(I5
I2
I5
tp506
I143
s(I3
I2
I26
tp507
I485
s(I4
I2
I74
tp508
I474
s(I2
I2
I6
tp509
I526
s(I4
I2
I39
tp510
I437
s(I4
I1
I29
tp511
I86
s(I3
I1
I47
tp512
I790
s(I2
I1
I82
tp513
I690
s(I1
I2
I66
tp514
I627
s(I5
I2
I44
tp515
I271
s(I3
I2
I61
tp516
I232
s(I1
I1
I79
tp517
I884
s(I5
I1
I97
tp518
I23
s(I3
I2
I80
tp519
I225
s(I4
I2
I12
tp520
I302
s(I4
I1
I36
tp521
I83
s(I3
I1
I8
tp522
I534
s(I4
I1
I87
tp523
I204
s(I3
I1
I11
tp524
I665
s(I5
I2
I75
tp525
I406
s(I2
I1
I24
tp526
I974
s(I1
I1
I36
tp527
I754
s(I1
I2
I12
tp528
I845
s(I5
I1
I78
tp529
I1
s(I3
I1
I77
tp530
I768
s(I4
I2
I85
tp531
I449
s(I3
I1
I97
tp532
I670
s(I3
I1
I72
tp533
I798
s(I2
I1
I51
tp534
I545
s(I1
I1
I29
tp535
I767
s(I1
I2
I35
tp536
I608
s(I5
I1
I23
tp537
I171
s(I5
I2
I13
tp538
I151
s(I3
I2
I2
tp539
I108
s(I2
I2
I30
tp540
I515
s(I4
I2
I47
tp541
I446
s(I4
I1
I5
tp542
I111
s(I2
I2
I99
tp543
I672
s(I1
I2
I90
tp544
I592
s(I3
I1
I71
tp545
I794
s(I5
I2
I84
tp546
I408
s(I3
I2
I37
tp547
I504
s(I1
I1
I71
tp548
I880
s(I3
I1
I76
tp549
I792
s(I3
I2
I88
tp550
I367
s(I4
I1
I44
tp551
I76
s(I2
I2
I68
tp552
I812
s(I4
I1
I95
tp553
I327
s(I2
I1
I16
tp554
I971
s(I1
I1
I60
tp555
I888
s(I1
I2
I4
tp556
I852
s(I5
I1
I54
tp557
I44
s(I3
I2
I99
tp558
I497
s(I4
I2
I93
tp559
I333
s(I2
I2
I61
tp560
I934
s(I4
I1
I102
tp561
I344
s(I3
I1
I16
tp562
I645
s(I3
I1
I83
tp563
I659
s(I1
I1
I21
tp564
I1013
s(I1
I2
I59
tp565
I761
s(I5
I1
I31
tp566
I162
s(I5
I2
I53
tp567
I386
s(I3
I2
I10
tp568
I211
s(I1
I1
I102
tp569
I735
s(I2
I2
I22
tp570
I519
s(I4
I2
I23
tp571
I422
s(I4
I1
I13
tp572
I231
s(I3
I1
I63
tp573
I777
s(I2
I1
I98
tp574
I699
s(I1
I2
I82
tp575
I585
s(I5
I2
I92
tp576
I135
s(I3
I2
I45
tp577
I508
s(I1
I1
I95
tp578
I734
s(I5
I1
I81
tp579
I5
s(I3
I2
I64
tp580
I237
s(I2
I2
I92
tp581
I562
s(I2
I2
I39
tp582
I942
s(I4
I1
I71
tp583
I94
s(I3
I1
I81
tp584
I773
s(I2
I1
I40
tp585
I602
s(I1
I1
I52
tp586
I865
s(I1
I2
I28
tp587
I727
s(I5
I1
I62
tp588
I51
s(I5
I2
I22
tp589
I256
s(I4
I2
I69
tp590
I471
s(I2
I2
I53
tp591
I955
s(I4
I2
I54
tp592
I462
s(I2
I1
I67
tp593
I807
s(I1
I2
I51
tp594
I616
s(I5
I1
I7
tp595
I291
s(I5
I2
I61
tp596
I392
s(I3
I2
I50
tp597
I383
s(I4
I2
I31
tp598
I430
s(I4
I1
I53
tp599
I97
s(I3
I1
I55
tp600
I783
s(I5
I2
I68
tp601
I395
s(I2
I1
I9
tp602
I985
s(I1
I1
I87
tp603
I716
s(I5
I1
I89
tp604
I16
s(I3
I2
I72
tp605
I243
s(I4
I2
I100
tp606
I342
s(I2
I2
I84
tp607
I555
s(I4
I1
I79
tp608
I71
s(I5
I2
I99
tp609
I10
s(I2
I1
I32
tp610
I580
s(I1
I1
I12
tp611
I1015
s(I1
I2
I20
tp612
I863
s(I5
I1
I38
tp613
I167
s(I5
I2
I30
tp614
I283
s(I3
I2
I19
tp615
I488
s(I4
I2
I77
tp616
I453
s(I2
I2
I13
tp617
I537
s(I4
I2
I62
tp618
I468
s(I4
I1
I22
tp619
I217
s(I2
I1
I91
tp620
I701
s(I1
I2
I75
tp621
I584
s(I5
I1
I15
tp622
I177
s(I5
I2
I37
tp623
I266
s(I3
I2
I58
tp624
I356
s(I4
I2
I7
tp625
I300
s(I4
I1
I61
tp626
I122
s(I2
I2
I75
tp627
I569
s(I1
I1
I22
tp628
I1003
s(I1
I2
I98
tp629
I729
s(I3
I1
I25
tp630
I917
s(I5
I2
I76
tp631
I401
s(I2
I2
I76
tp632
I574
s(I1
I1
I47
tp633
I749
s(I5
I1
I65
tp634
I38
s(I2
I2
I44
tp635
I930
s(I2
I2
I67
tp636
I811
s(I2
I1
I56
tp637
I821
s(I1
I1
I4
tp638
I997
s(I1
I2
I44
tp639
I621
s(I5
I1
I46
tp640
I189
s(I5
I2
I6
tp641
I138
s(I3
I2
I27
tp642
I503
s(I2
I2
I5
tp643
I530
s(I4
I2
I38
tp644
I435
s(I4
I1
I30
tp645
I193
s(I3
I1
I46
tp646
I903
s(I3
I1
I34
tp647
I906
s(I2
I1
I83
tp648
I685
s(I1
I2
I67
tp649
I631
s(I5
I2
I45
tp650
I273
s(I3
I2
I34
tp651
I511
s(I1
I1
I78
tp652
I992
s(I5
I1
I96
tp653
I17
s(I3
I2
I81
tp654
I226
s(I4
I2
I15
tp655
I307
s(I4
I1
I37
tp656
I79
s(I3
I1
I7
tp657
I640
s(I3
I1
I13
tp658
I666
s(I4
I1
I80
tp659
I64
s(I3
I1
I80
tp660
I774
s(I1
I1
I39
tp661
I756
s(I1
I2
I13
tp662
I844
s(I5
I1
I73
tp663
I61
s(I4
I2
I84
tp664
I329
s(I3
I1
I96
tp665
I651
s(I2
I1
I48
tp666
I980
s(I1
I1
I28
tp667
I1000
s(I1
I2
I36
tp668
I609
s(I5
I1
I22
tp669
I176
s(I5
I2
I14
tp670
I145
s(I3
I2
I3
tp671
I221
s(I1
I1
I97
tp672
I733
s(I3
I1
I89
tp673
I652
s(I4
I2
I46
tp674
I442
s(I4
I1
I6
tp675
I66
s(I2
I2
I98
tp676
I674
s(I1
I2
I91
tp677
I705
s(I5
I2
I85
tp678
I412
s(I3
I2
I42
tp679
I362
s(I1
I1
I70
tp680
I872
s(I3
I1
I15
tp681
I667
s(I3
I2
I89
tp682
I371
s(I4
I1
I45
tp683
I73
s(I2
I2
I91
tp684
I564
s(I4
I1
I88
tp685
I323
s(I2
I1
I17
tp686
I990
s(I1
I1
I63
tp687
I894
s(I1
I2
I5
tp688
I850
s(I5
I1
I49
tp689
I47
s(I3
I2
I96
tp690
I502
s(I4
I2
I92
tp691
I335
s(I3
I1
I90
tp692
I658
s(I2
I2
I60
tp693
I935
s(I2
I1
I72
tp694
I827
s(I1
I1
I20
tp695
I1007
s(I1
I2
I60
tp696
I741
s(I5
I1
I30
tp697
I165
s(I5
I2
I54
tp698
I277
s(I3
I2
I11
tp699
I212
s(I3
I1
I39
tp700
I896
s(I2
I2
I21
tp701
I513
s(I4
I2
I22
tp702
I308
s(I4
I1
I14
tp703
I254
s(I3
I1
I62
tp704
I782
s(I2
I1
I99
tp705
I696
s(I1
I2
I83
tp706
I591
s(I5
I2
I93
tp707
I134
s(I2
I1
I14
tp708
I966
s(I1
I1
I94
tp709
I715
s(I5
I1
I80
tp710
I2
s(I3
I2
I65
tp711
I234
s(I2
I2
I83
tp712
I556
s(I3
I1
I31
tp713
I909
s(I4
I1
I64
tp714
I125
s(I3
I1
I21
tp715
I915
s(I5
I2
I100
tp716
I11
s(I2
I1
I41
tp717
I605
s(I1
I1
I55
tp718
I870
s(I2
I2
I66
tp719
I813
s(I5
I1
I57
tp720
I55
s(I5
I2
I23
tp721
I260
s(I4
I2
I68
tp722
I476
s(I2
I2
I52
tp723
I958
s(I4
I2
I49
tp724
I445
s(I2
I1
I64
tp725
I804
s(I1
I2
I52
tp726
I738
s(I5
I1
I6
tp727
I314
s(I5
I2
I62
tp728
I384
s(I3
I2
I51
tp729
I377
s(I4
I2
I30
tp730
I429
s(I4
I1
I54
tp731
I96
s(I3
I1
I54
tp732
I789
s(I3
I1
I12
tp733
I647
s(I5
I2
I69
tp734
I400
s(I2
I1
I6
tp735
I962
s(I1
I1
I86
tp736
I723
s(I5
I1
I88
tp737
I24
s(I3
I2
I73
tp738
I241
s(I2
I2
I43
tp739
I937
s(I4
I1
I72
tp740
I90
s(I2
I1
I33
tp741
I583
s(I1
I1
I15
tp742
I1010
s(I1
I2
I21
tp743
I832
s(I5
I1
I33
tp744
I161
s(I5
I2
I31
tp745
I286
s(I3
I2
I16
tp746
I208
s(I4
I2
I76
tp747
I473
s(I2
I2
I12
tp748
I523
s(I4
I2
I57
tp749
I458
s(I4
I1
I23
tp750
I197
s(I2
I1
I88
tp751
I683
s(I1
I2
I76
tp752
I635
s(I5
I1
I14
tp753
I183
s(I5
I2
I38
tp754
I264
s(I3
I2
I59
tp755
I353
s(I1
I1
I73
tp756
I881
s(I4
I2
I6
tp757
I316
s(I4
I1
I62
tp758
I124
s(I2
I2
I74
tp759
I544
s(I1
I2
I101
tp760
I731
s(I1
I2
I99
tp761
I730
s(I5
I2
I77
tp762
I407
s(I2
I1
I30
tp763
I581
s(I1
I1
I46
tp764
I745
s(I5
I1
I64
tp765
I36
s(I3
I1
I78
tp766
I775
s(I2
I2
I35
tp767
I940
s(I2
I1
I57
tp768
I818
s(I1
I1
I7
tp769
I1018
s(I1
I2
I45
tp770
I624
s(I5
I1
I41
tp771
I191
s(I5
I2
I7
tp772
I144
s(I3
I2
I24
tp773
I492
s(I2
I2
I4
tp774
I531
s(I4
I2
I33
tp775
I431
s(I4
I1
I31
tp776
I87
s(I3
I1
I45
tp777
I902
s(I2
I1
I80
tp778
I694
s(I1
I2
I68
tp779
I626
s(I3
I1
I30
tp780
I911
s(I5
I2
I46
tp781
I270
s(I3
I2
I35
tp782
I487
s(I1
I1
I65
tp783
I876
s(I5
I1
I99
tp784
I30
s(I3
I2
I86
tp785
I368
s(I4
I2
I14
tp786
I301
s(I4
I1
I38
tp787
I82
s(I3
I1
I6
tp788
I535
s(I4
I1
I81
tp789
I88
s(I2
I1
I61
tp790
I803
s(I2
I1
I22
tp791
I968
s(I1
I1
I38
tp792
I753
s(I1
I2
I14
tp793
I860
s(I5
I1
I72
tp794
I59
s(I2
I2
I65
tp795
I810
s(I4
I2
I87
tp796
I448
s(I2
I2
I59
tp797
I933
s(I3
I1
I17
tp798
I671
s(I2
I1
I49
tp799
I546
s(I1
I1
I31
tp800
I766
s(I1
I2
I37
tp801
I612
s(I5
I1
I17
tp802
I178
s(I5
I2
I15
tp803
I159
s(I1
I1
I96
tp804
I714
s(I2
I2
I28
tp805
I514
s(I4
I2
I41
tp806
I438
s(I4
I1
I7
tp807
I253
s(I2
I2
I97
tp808
I673
s(I1
I2
I92
tp809
I706
s(I5
I2
I86
tp810
I137
s(I3
I2
I43
tp811
I509
s(I1
I1
I89
tp812
I717
s(I3
I2
I94
tp813
I375
s(I4
I1
I46
tp814
I75
s(I2
I2
I90
tp815
I563
s(I2
I2
I32
tp816
I951
s(I4
I1
I89
tp817
I205
s(I2
I1
I46
tp818
I981
s(I1
I1
I62
tp819
I871
s(I1
I2
I6
tp820
I851
s(I5
I1
I48
tp821
I190
s(I3
I2
I97
tp822
I496
s(I4
I2
I95
tp823
I338
s(I2
I2
I51
tp824
I954
s(I4
I1
I96
tp825
I322
s(I2
I1
I73
tp826
I826
s(I1
I1
I23
tp827
I1004
s(I1
I2
I61
tp828
I762
s(I5
I1
I25
tp829
I172
s(I5
I2
I55
tp830
I385
s(I3
I2
I8
tp831
I219
s(I2
I2
I20
tp832
I536
s(I4
I2
I17
tp833
I419
s(I4
I1
I15
tp834
I248
s(I3
I1
I61
tp835
I776
s(I2
I1
I96
tp836
I703
s(I1
I2
I84
tp837
I595
s(I5
I2
I94
tp838
I129
s(I2
I1
I15
tp839
I991
s(I1
I1
I81
tp840
I885
s(I5
I1
I83
tp841
I6
s(I3
I2
I70
tp842
I244
s(I2
I2
I82
tp843
I570
s(I3
I1
I84
tp844
I771
s(I4
I1
I65
tp845
I116
s(I5
I2
I101
tp846
I25
s(I2
I1
I38
tp847
I603
s(I1
I1
I54
tp848
I866
s(I1
I2
I30
tp849
I726
s(I5
I1
I56
tp850
I54
s(I5
I2
I16
tp851
I155
s(I3
I1
I74
tp852
I799
s(I4
I2
I71
tp853
I475
s(I2
I2
I11
tp854
I522
s(I4
I2
I48
tp855
I441
s(I3
I1
I37
tp856
I897
s(I2
I1
I65
tp857
I801
s(I1
I2
I53
tp858
I617
s(I5
I1
I1
tp859
I295
s(I5
I2
I63
tp860
I393
s(I3
I2
I48
tp861
I382
s(I4
I2
I25
tp862
I423
s(I4
I1
I55
tp863
I103
s(I3
I1
I53
tp864
I927
s(I3
I1
I26
tp865
I913
s(I5
I2
I70
tp866
I394
s(I3
I1
I93
tp867
I654
s(I1
I1
I41
tp868
I757
s(I5
I1
I91
tp869
I20
s(I3
I2
I78
tp870
I224
s(I4
I2
I102
tp871
I349
s(I2
I2
I64
tp872
I814
s(I4
I1
I73
tp873
I93
s(I2
I1
I62
tp874
I805
s(I2
I1
I25
tp875
I976
s(I1
I2
I22
tp876
I857
s(I5
I1
I32
tp877
I164
s(I5
I2
I24
tp878
I257
s(I3
I2
I17
tp879
I215
s(I4
I2
I79
tp880
I454
s(I2
I2
I3
tp881
I529
s(I4
I2
I56
tp882
I461
s(I4
I1
I16
tp883
I255
s(I2
I1
I89
tp884
I702
s(I1
I2
I77
tp885
I588
s(I5
I1
I9
tp886
I290
s(I5
I2
I39
tp887
I267
s(I3
I2
I56
tp888
I357
s(I1
I1
I72
tp889
I879
s(I3
I1
I10
tp890
I664
s(I4
I2
I1
tp891
I318
s(I4
I1
I63
tp892
I115
s(I2
I2
I73
tp893
I568
s(I2
I1
I13
tp894
I987
s(I1
I2
I100
tp895
I728
s(I5
I2
I78
tp896
I411
s(I2
I1
I31
tp897
I582
s(I1
I1
I33
tp898
I765
s(I5
I1
I67
tp899
I39
s(I3
I1
I102
tp900
I648
s(I2
I2
I36
tp901
I945
s(I2
I1
I54
tp902
I822
s(I1
I1
I6
tp903
I996
s(I1
I2
I46
tp904
I620
s(I5
I1
I40
tp905
I166
s(I3
I2
I25
tp906
I491
s(I3
I1
I95
tp907
I655
s(I4
I2
I32
tp908
I428
s(I4
I1
I24
tp909
I216
s(I3
I1
I44
tp910
I920
s(I2
I1
I81
tp911
I684
s(I1
I2
I69
tp912
I636
s(I5
I2
I47
tp913
I274
s(I3
I2
I32
tp914
I481
s(I1
I1
I64
tp915
I875
s(I5
I1
I98
tp916
I31
s(I3
I2
I87
tp917
I366
s(I4
I2
I9
tp918
I304
s(I4
I1
I39
tp919
I80
s(I3
I1
I5
tp920
I641
s(I4
I1
I82
tp921
I65
s(I2
I1
I23
tp922
I975
s(I1
I1
I57
tp923
I890
s(I1
I2
I15
tp924
I840
s(I5
I1
I75
tp925
I60
s(I4
I2
I86
tp926
I328
s(I2
I2
I58
tp927
I952
s(I2
I1
I78
tp928
I695
s(I1
I1
I30
tp929
I763
s(I1
I2
I38
tp930
I610
s(I5
I1
I16
tp931
I182
s(I5
I2
I8
tp932
I148
s(I3
I2
I1
tp933
I114
s(I1
I1
I99
tp934
I732
s(I2
I2
I19
tp935
I543
s(I4
I2
I40
tp936
I434
s(I2
I2
I96
tp937
I560
s(I1
I2
I93
tp938
I704
s(I5
I2
I87
tp939
I128
s(I3
I2
I40
tp940
I363
s(I1
I1
I88
tp941
I722
s(I2
I1
I69
tp942
I824
s(I3
I2
I95
tp943
I374
s(I4
I1
I47
tp944
I74
s(I2
I2
I89
tp945
I559
s(I2
I1
I1
tp946
I854
s(I4
I1
I90
tp947
I324
s(I3
I1
I22
tp948
I919
s(I2
I1
I47
tp949
I547
s(I1
I1
I49
tp950
I750
s(I1
I2
I7
tp951
I841
s(I5
I1
I51
tp952
I48
s(I3
I2
I102
tp953
I499
s(I4
I2
I94
tp954
I334
s(I2
I2
I50
tp955
I957
s(I4
I1
I97
tp956
I347
s(I2
I1
I70
tp957
I831
s(I2
I1
I21
tp958
I988
s(I1
I2
I62
tp959
I740
s(I5
I1
I24
tp960
I175
s(I5
I2
I48
tp961
I269
s(I3
I2
I9
tp962
I207
s(I4
I2
I16
tp963
I311
s(I4
I1
I8
tp964
I107
s(I3
I1
I60
tp965
I786
s(I2
I1
I97
tp966
I679
s(I1
I2
I85
tp967
I596
s(I5
I2
I95
tp968
I8
s(I2
I1
I12
tp969
I967
s(I1
I1
I80
tp970
I993
s(I5
I1
I82
tp971
I3
s(I3
I2
I71
tp972
I240
s(I2
I2
I81
tp973
I552
s(I4
I1
I66
tp974
I119
s(I5
I2
I102
tp975
I28
s(I2
I1
I39
tp976
I606
s(I1
I1
I9
tp977
I1022
s(I1
I2
I31
tp978
I834
s(I5
I1
I59
tp979
I35
s(I5
I2
I17
tp980
I158
s(I4
I2
I70
tp981
I477
s(I2
I2
I10
tp982
I524
s(I4
I2
I51
tp983
I444
s(I2
I1
I94
tp984
I680
s(I1
I2
I54
tp985
I739
s(I5
I2
I56
tp986
I276
s(I3
I2
I49
tp987
I376
s(I4
I2
I24
tp988
I421
s(I4
I1
I48
tp989
I102
s(I3
I1
I52
tp990
I926
s(I5
I2
I71
tp991
I404
s(I2
I1
I4
tp992
I961
s(I1
I1
I40
tp993
I752
s(I5
I1
I90
tp994
I7
s(I3
I2
I79
tp995
I227
s(I4
I2
I97
tp996
I339
s(I2
I2
I41
tp997
I936
s(I4
I1
I74
tp998
I89
s(I2
I1
I63
tp999
I802
s(I3
I1
I29
tp1000
I908
s(I1
I2
I23
tp1001
I836
s(I5
I1
I35
tp1002
I185
s(I5
I2
I25
tp1003
I261
s(I3
I2
I22
tp1004
I493
s(I4
I2
I78
tp1005
I472
s(I2
I2
I2
tp1006
I532
s(I3
I1
I70
tp1007
I797
s(I4
I2
I59
tp1008
I459
s(I4
I1
I17
tp1009
I249
s(I2
I1
I86
tp1010
I688
s(I1
I2
I78
tp1011
I587
s(I5
I1
I8
tp1012
I294
s(I5
I2
I32
tp1013
I282
s(I3
I2
I57
tp1014
I354
s(I1
I1
I75
tp1015
I882
s(I5
I1
I101
tp1016
I29
s(I4
I1
I56
tp1017
I126
s(I2
I2
I72
tp1018
I548
s(I2
I2
I70
tp1019
I549
s(I5
I2
I79
tp1020
I415
s.