(dp0
(I0
I45
I1
tp1
I125
s(I0
I27
I1
tp2
I94
s(I0
I44
I0
tp3
I2
s(I0
I53
I1
tp4
I97
s(I0
I45
I3
tp5
I118
s(I0
I62
I0
tp6
I24
s(I0
I56
I2
tp7
I19
s(I0
I5
I1
tp8
I65
s(I0
I54
I2
tp9
I20
s(I0
I15
I3
tp10
I80
s(I0
I5
I3
tp11
I85
s(I0
I22
I0
tp12
I36
s(I0
I15
I1
tp13
I71
s(I0
I16
I2
tp14
I48
s(I0
I22
I2
tp15
I51
s(I0
I34
I0
tp16
I6
s(I0
I16
I0
tp17
I39
s(I0
I9
I1
tp18
I68
s(I0
I34
I2
tp19
I14
sS'nrows'
p20
I64
s(I0
I51
I3
tp21
I105
s(I0
I48
I0
tp22
I28
s(I0
I9
I3
tp23
I83
s(I0
I26
I0
tp24
I33
sS'chip2conn'
p25
(dp26
I0
I0
sI1
I1
sI2
I2
sI3
I3
sI4
I4
sI5
I5
sI6
I6
sI7
I7
ss(I0
I51
I1
tp27
I98
s(I0
I4
I2
tp28
I42
s(I0
I53
I3
tp29
I106
s(I0
I26
I2
tp30
I53
s(I0
I4
I0
tp31
I62
s(I0
I61
I1
tp32
I102
s(I0
I39
I3
tp33
I115
s(I0
I61
I3
tp34
I110
s(I0
I14
I0
tp35
I56
s(I0
I39
I1
tp36
I123
s(I0
I8
I2
tp37
I44
s(I0
I14
I2
tp38
I47
s(I0
I31
I3
tp39
I72
s(I0
I8
I0
tp40
I59
s(I0
I33
I1
tp41
I120
s(I0
I31
I1
tp42
I92
s(I0
I43
I3
tp43
I117
s(I0
I60
I0
tp44
I25
s(I0
I33
I3
tp45
I112
s(I0
I50
I0
tp46
I29
s(I0
I43
I1
tp47
I126
s(I0
I25
I1
tp48
I95
s(I0
I50
I2
tp49
I22
s(I0
I3
I3
tp50
I86
s(I0
I25
I3
tp51
I75
s(I0
I3
I1
tp52
I66
s(I0
I20
I2
tp53
I50
s(I0
I62
I2
tp54
I16
s(I0
I48
I2
tp55
I23
s(I0
I38
I0
tp56
I4
s(I0
I20
I0
tp57
I37
s(I0
I32
I2
tp58
I15
s(I0
I38
I2
tp59
I12
s(I0
I55
I3
tp60
I107
s(I0
I32
I0
tp61
I7
s(I0
I30
I0
tp62
I35
s(I0
I55
I1
tp63
I96
s(I0
I24
I2
tp64
I52
s(I0
I52
I2
tp65
I21
s(I0
I30
I2
tp66
I55
s(I0
I36
I2
tp67
I13
s(I0
I42
I0
tp68
I1
s(I0
I24
I0
tp69
I32
s(I0
I49
I1
tp70
I99
s(I0
I42
I2
tp71
I10
s(I0
I59
I3
tp72
I109
s(I0
I46
I2
tp73
I8
s(I0
I49
I3
tp74
I104
s(I0
I2
I0
tp75
I61
s(I0
I59
I1
tp76
I101
s(I0
I12
I2
tp77
I46
s(I0
I2
I2
tp78
I41
s(I0
I19
I3
tp79
I78
s(I0
I12
I0
tp80
I57
s(I0
I37
I1
tp81
I122
s(I0
I19
I1
tp82
I89
s(I0
I47
I3
tp83
I119
s(I0
I37
I3
tp84
I114
s(I0
I54
I0
tp85
I31
s(I0
I21
I1
tp86
I90
s(I0
I56
I0
tp87
I27
s(I0
I47
I1
tp88
I124
s(I0
I29
I1
tp89
I93
s(I0
I36
I0
tp90
I5
s(I0
I7
I3
tp91
I84
s(I0
I13
I1
tp92
I70
s(I0
I29
I3
tp93
I73
s(I0
I41
I1
tp94
I127
s(I0
I7
I1
tp95
I64
s(I0
I60
I2
tp96
I17
s(I0
I41
I3
tp97
I116
s(I0
I58
I0
tp98
I26
s(I0
I1
I1
tp99
I67
s(I0
I58
I2
tp100
I18
s(I0
I11
I3
tp101
I82
s(I0
I1
I3
tp102
I87
s(I0
I18
I0
tp103
I38
s(I0
I11
I1
tp104
I69
s(I0
I28
I2
tp105
I54
s(I0
I18
I2
tp106
I49
s(I0
I21
I3
tp107
I77
s(I0
I46
I0
tp108
I3
s(I0
I28
I0
tp109
I34
s(I0
I40
I2
tp110
I11
s(I0
I13
I3
tp111
I81
s(I0
I63
I3
tp112
I111
s(I0
I44
I2
tp113
I9
s(I0
I40
I0
tp114
I0
s(I0
I6
I0
tp115
I63
s(I0
I63
I1
tp116
I103
s(I0
I0
I2
tp117
I40
sS'ncols'
p118
I4
s(I0
I6
I2
tp119
I43
s(I0
I23
I3
tp120
I76
sS'nshanks'
p121
I1
s(I0
I0
I0
tp122
I60
s(I0
I57
I1
tp123
I100
s(I0
I23
I1
tp124
I91
s(I0
I35
I3
tp125
I113
s(I0
I57
I3
tp126
I108
s(I0
I10
I0
tp127
I58
s(I0
I35
I1
tp128
I121
s(I0
I17
I1
tp129
I88
s(I0
I10
I2
tp130
I45
s(I0
I27
I3
tp131
I74
s(I0
I52
I0
tp132
I30
s(I0
I17
I3
tp133
I79
s.