(dp0
(I1
I19
I0
tp1
I203
s(I0
I24
I1
tp2
I24
s(I0
I27
I1
tp3
I27
s(I1
I10
I1
tp4
I233
s(I1
I30
I0
tp5
I214
s(I1
I4
I2
tp6
I75
s(I1
I10
I3
tp7
I81
s(I1
I25
I0
tp8
I209
s(I0
I2
I1
tp9
I12
s(I1
I30
I2
tp10
I98
s(I0
I5
I1
tp11
I11
s(I1
I7
I2
tp12
I74
s(I0
I12
I3
tp13
I136
s(I1
I22
I3
tp14
I70
s(I1
I4
I0
tp15
I243
s(I0
I15
I3
tp16
I143
s(I1
I25
I2
tp17
I102
s(I0
I2
I3
tp18
I141
s(I0
I19
I2
tp19
I160
s(I0
I5
I3
tp20
I132
s(I0
I22
I0
tp21
I57
s(I1
I7
I0
tp22
I255
s(I0
I12
I1
tp23
I55
s(I0
I15
I1
tp24
I23
s(I0
I16
I2
tp25
I163
s(I0
I19
I0
tp26
I63
s(I1
I2
I0
tp27
I242
s(I0
I22
I2
tp28
I166
s(I1
I8
I2
tp29
I117
s(I0
I16
I0
tp30
I60
s(I1
I13
I0
tp31
I252
s(I1
I2
I2
tp32
I115
s(I0
I9
I1
tp33
I54
s(I1
I17
I1
tp34
I221
s(I1
I11
I2
tp35
I118
s(I0
I29
I0
tp36
I33
s(I1
I8
I0
tp37
I245
s(I1
I31
I3
tp38
I92
s(I1
I13
I2
tp39
I72
s(I1
I28
I3
tp40
I95
s(I0
I7
I2
tp41
I146
s(I0
I9
I3
tp42
I129
s(I1
I17
I3
tp43
I66
s(I0
I26
I0
tp44
I37
s(I1
I11
I0
tp45
I253
s(I0
I29
I2
tp46
I190
s(I1
I31
I1
tp47
I195
s(I0
I4
I2
tp48
I147
s(I1
I28
I1
tp49
I192
s(I0
I7
I0
tp50
I19
s(I0
I26
I2
tp51
I186
s(I0
I4
I0
tp52
I43
s(I1
I5
I1
tp53
I228
s(I1
I26
I1
tp54
I197
s(I0
I1
I0
tp55
I22
s(I1
I3
I3
tp56
I106
s(I1
I0
I3
tp57
I86
s(I0
I11
I2
tp58
I153
s(I1
I5
I3
tp59
I107
s(I0
I14
I0
tp60
I48
s(I1
I20
I2
tp61
I123
s(I1
I26
I3
tp62
I90
s(I0
I1
I2
tp63
I148
s(I0
I18
I1
tp64
I1
s(I1
I3
I1
tp65
I236
s(I0
I8
I2
tp66
I154
s(I1
I0
I1
tp67
I235
s(I0
I11
I0
tp68
I17
s(I1
I23
I2
tp69
I120
s(I0
I28
I3
tp70
I171
s(I0
I14
I2
tp71
I152
s(I1
I20
I0
tp72
I204
s(I0
I31
I3
tp73
I168
s(I0
I18
I3
tp74
I181
s(I0
I8
I0
tp75
I45
s(I1
I23
I0
tp76
I207
s(I0
I28
I1
tp77
I31
s(I1
I9
I1
tp78
I238
s(I0
I31
I1
tp79
I28
s(I1
I14
I1
tp80
I231
s(I1
I18
I0
tp81
I202
s(I1
I9
I3
tp82
I109
s(I1
I24
I2
tp83
I103
s(I1
I14
I3
tp84
I79
s(I1
I29
I0
tp85
I213
s(I0
I6
I1
tp86
I53
s(I1
I18
I2
tp87
I126
s(I0
I25
I1
tp88
I25
s(I1
I27
I2
tp89
I100
s(I0
I0
I3
tp90
I142
s(I1
I24
I0
tp91
I208
s(I0
I3
I3
tp92
I133
s(I1
I29
I2
tp93
I97
s(I0
I6
I3
tp94
I139
s(I0
I23
I2
tp95
I167
s(I0
I25
I3
tp96
I174
s(I1
I27
I0
tp97
I211
s(I0
I0
I1
tp98
I51
s(I0
I3
I1
tp99
I52
s(I0
I20
I2
tp100
I164
s(I0
I23
I0
tp101
I56
s(I1
I6
I0
tp102
I244
sS'nshanks'
p103
I2
s(I1
I12
I2
tp104
I112
s(I0
I20
I0
tp105
I59
s(I1
I1
I0
tp106
I249
s(I0
I10
I1
tp107
I49
s(I1
I2
I3
tp108
I85
s(I1
I6
I2
tp109
I113
s(I0
I13
I1
tp110
I15
s(I1
I21
I1
tp111
I218
s(I1
I15
I2
tp112
I104
s(I0
I17
I0
tp113
I61
s(I1
I12
I0
tp114
I247
s(I1
I19
I3
tp115
I64
s(I1
I1
I2
tp116
I76
s(I0
I10
I3
tp117
I137
s(I1
I16
I3
tp118
I67
s(I0
I27
I2
tp119
I187
s(I0
I13
I3
tp120
I131
s(I1
I21
I3
tp121
I69
s(I0
I30
I0
tp122
I34
s(I1
I15
I0
tp123
I240
s(I0
I17
I2
tp124
I162
s(I1
I19
I1
tp125
I223
s(I0
I24
I2
tp126
I184
s(I1
I16
I1
tp127
I220
s(I0
I27
I0
tp128
I36
s(I1
I10
I0
tp129
I246
s(I0
I30
I2
tp130
I189
s(I0
I24
I0
tp131
I39
s(I1
I10
I2
tp132
I73
s(I1
I25
I1
tp133
I198
s(I1
I30
I1
tp134
I194
s(I0
I5
I0
tp135
I20
s(I1
I22
I2
tp136
I121
s(I1
I7
I3
tp137
I108
s(I1
I4
I3
tp138
I84
s(I0
I15
I2
tp139
I135
s(I1
I25
I3
tp140
I89
s(I0
I2
I0
tp141
I42
s(I1
I30
I3
tp142
I93
s(I0
I5
I2
tp143
I155
s(I0
I21
I0
tp144
I58
s(I0
I22
I1
tp145
I6
s(I1
I7
I1
tp146
I226
s(I0
I12
I2
tp147
I156
s(I1
I4
I1
tp148
I234
s(I0
I15
I0
tp149
I40
s(I0
I16
I3
tp150
I183
s(I0
I2
I2
tp151
I159
s(I0
I19
I3
tp152
I180
s(I0
I22
I3
tp153
I177
s(I0
I12
I0
tp154
I47
s(I0
I16
I1
tp155
I3
s(I1
I13
I1
tp156
I227
s(I0
I19
I1
tp157
I0
s(I1
I2
I1
tp158
I224
s(I0
I9
I0
tp159
I18
s(I1
I11
I3
tp160
I110
s(I1
I8
I3
tp161
I82
sS'chip2conn'
p162
(dp163
I0
I0
sI1
I1
sI2
I2
sI3
I3
sI4
I4
sI5
I5
sI6
I6
sI7
I7
ss(I1
I13
I3
tp164
I111
s(I1
I28
I2
tp165
I96
s(I0
I21
I1
tp166
I5
s(I0
I9
I2
tp167
I150
s(I1
I17
I0
tp168
I201
s(I0
I26
I1
tp169
I26
s(I1
I11
I1
tp170
I230
s(I0
I29
I1
tp171
I30
s(I1
I8
I1
tp172
I229
s(I1
I31
I2
tp173
I99
s(I0
I4
I3
tp174
I140
s(I1
I28
I0
tp175
I212
s(I0
I7
I3
tp176
I128
s(I1
I17
I2
tp177
I125
s(I0
I26
I3
tp178
I173
s(I0
I29
I3
tp179
I170
s(I1
I31
I0
tp180
I215
s(I0
I4
I1
tp181
I50
s(I0
I7
I1
tp182
I14
s(I1
I26
I0
tp183
I210
s(I0
I21
I2
tp184
I165
s(I1
I0
I2
tp185
I114
s(I1
I5
I0
tp186
I251
s(I0
I14
I1
tp187
I8
s(I1
I26
I2
tp188
I101
s(I0
I1
I1
tp189
I13
s(I1
I3
I2
tp190
I77
s(I0
I8
I3
tp191
I138
s(I1
I0
I0
tp192
I241
s(I0
I11
I3
tp193
I130
s(I1
I23
I3
tp194
I71
s(I1
I5
I2
tp195
I116
s(I0
I14
I3
tp196
I151
s(I1
I20
I3
tp197
I68
s(I0
I31
I2
tp198
I188
s(I0
I1
I3
tp199
I134
s(I0
I18
I0
tp200
I62
s(I1
I3
I0
tp201
I250
s(I0
I8
I1
tp202
I10
s(I0
I11
I1
tp203
I9
s(I1
I23
I1
tp204
I216
s(I0
I28
I2
tp205
I191
s(I1
I20
I1
tp206
I219
s(I0
I31
I0
tp207
I35
s(I1
I14
I0
tp208
I232
s(I0
I18
I2
tp209
I161
s(I0
I21
I3
tp210
I178
s(I1
I22
I0
tp211
I206
s(I0
I28
I0
tp212
I32
s(I1
I9
I0
tp213
I254
s(I1
I14
I2
tp214
I119
s(I1
I29
I1
tp215
I193
s(I1
I18
I1
tp216
I222
s(I0
I25
I0
tp217
I38
s(I1
I27
I3
tp218
I91
s(I1
I9
I2
tp219
I78
s(I1
I24
I3
tp220
I88
s(I0
I3
I2
tp221
I149
s(I1
I29
I3
tp222
I94
s(I0
I6
I0
tp223
I44
s(I1
I18
I3
tp224
I65
s(I0
I25
I2
tp225
I185
s(I1
I27
I1
tp226
I196
s(I0
I0
I2
tp227
I158
sS'ncols'
p228
I4
s(I1
I24
I1
tp229
I199
s(I0
I3
I0
tp230
I21
s(I0
I20
I3
tp231
I179
s(I0
I6
I2
tp232
I157
s(I0
I23
I3
tp233
I176
s(I1
I22
I1
tp234
I217
s(I0
I0
I0
tp235
I41
s(I0
I20
I1
tp236
I4
s(I1
I1
I1
tp237
I225
s(I0
I23
I1
tp238
I7
s(I1
I6
I1
tp239
I237
s(I0
I13
I0
tp240
I16
sS'nrows'
p241
I32
s(I1
I15
I3
tp242
I87
s(I1
I12
I3
tp243
I80
s(I1
I1
I3
tp244
I105
s(I0
I10
I0
tp245
I46
s(I1
I16
I2
tp246
I124
s(I1
I6
I3
tp247
I83
s(I0
I13
I2
tp248
I144
s(I1
I21
I0
tp249
I205
s(I0
I30
I1
tp250
I29
s(I1
I15
I1
tp251
I248
s(I0
I17
I1
tp252
I2
s(I1
I12
I1
tp253
I239
s(I1
I19
I2
tp254
I127
s(I0
I24
I3
tp255
I175
s(I0
I10
I2
tp256
I145
s(I1
I16
I0
tp257
I200
s(I0
I27
I3
tp258
I172
s(I1
I21
I2
tp259
I122
s(I0
I30
I3
tp260
I169
s(I0
I17
I3
tp261
I182
s.