(dp0
(I0
I27
I0
tp1
I1
s(I0
I1
I1
tp2
I35
s(I0
I24
I1
tp3
I43
s(I0
I14
I0
tp4
I15
s(I0
I21
I0
tp5
I5
s(I0
I27
I1
tp6
I62
s(I0
I18
I1
tp7
I46
s(I0
I24
I0
tp8
I20
s(I0
I21
I1
tp9
I58
s(I0
I11
I0
tp10
I26
s(I0
I18
I0
tp11
I17
s(I0
I8
I1
tp12
I51
s(I0
I5
I0
tp13
I30
s(I0
I11
I1
tp14
I37
s(I0
I2
I1
tp15
I54
s(I0
I8
I0
tp16
I12
s(I0
I31
I0
tp17
I3
s(I0
I5
I1
tp18
I33
s(I0
I28
I1
tp19
I41
s(I0
I2
I0
tp20
I9
s(I0
I31
I1
tp21
I60
s(I0
I22
I1
tp22
I44
s(I0
I28
I0
tp23
I22
s(I0
I15
I0
tp24
I24
s(I0
I22
I0
tp25
I19
s(I0
I12
I1
tp26
I49
s(I0
I25
I0
tp27
I0
s(I0
I15
I1
tp28
I39
s(I0
I6
I1
tp29
I52
s(I0
I12
I0
tp30
I14
s(I0
I19
I0
tp31
I6
s(I0
I25
I1
tp32
I63
s(I0
I16
I1
tp33
I47
s(I0
I6
I0
tp34
I11
s(I0
I19
I1
tp35
I57
s(I0
I9
I0
tp36
I27
s(I0
I16
I0
tp37
I16
sS'ncols'
p38
I2
s(I0
I3
I0
tp39
I29
s(I0
I9
I1
tp40
I36
sS'chip2conn'
p41
(dp42
I0
I0
sI1
I1
ss(I0
I0
I1
tp43
I55
s(I0
I29
I0
tp44
I2
s(I0
I3
I1
tp45
I34
sS'nrows'
p46
I32
s(I0
I26
I1
tp47
I42
s(I0
I0
I0
tp48
I8
s(I0
I23
I0
tp49
I4
s(I0
I29
I1
tp50
I61
sS'nshanks'
p51
I1
s(I0
I20
I1
tp52
I45
s(I0
I26
I0
tp53
I21
s(I0
I23
I1
tp54
I59
s(I0
I13
I0
tp55
I25
s(I0
I20
I0
tp56
I18
s(I0
I10
I1
tp57
I50
s(I0
I7
I0
tp58
I31
s(I0
I13
I1
tp59
I38
s(I0
I4
I1
tp60
I53
s(I0
I10
I0
tp61
I13
s(I0
I17
I0
tp62
I7
s(I0
I7
I1
tp63
I32
s(I0
I30
I1
tp64
I40
s(I0
I4
I0
tp65
I10
s(I0
I17
I1
tp66
I56
s(I0
I30
I0
tp67
I23
s(I0
I1
I0
tp68
I28
s(I0
I14
I1
tp69
I48
s.